;
; Definition file of libIlmThread-3_0.dll
; Automatic generated by gendef
; written by Kai Tietz 2008
;
LIBRARY "libIlmThread-3_0.dll"
EXPORTS
_ZN13IlmThread_3_010ThreadPool13addGlobalTaskEPNS_4TaskE
_ZN13IlmThread_3_010ThreadPool13setNumThreadsEi
_ZN13IlmThread_3_010ThreadPool16globalThreadPoolEv
_ZN13IlmThread_3_010ThreadPool17setThreadProviderEPNS_18ThreadPoolProviderE
_ZN13IlmThread_3_010ThreadPool28estimateThreadCountForFileIOEv
_ZN13IlmThread_3_010ThreadPool7addTaskEPNS_4TaskE
_ZN13IlmThread_3_010ThreadPoolC1Ej
_ZN13IlmThread_3_010ThreadPoolC2Ej
_ZN13IlmThread_3_010ThreadPoolD0Ev
_ZN13IlmThread_3_010ThreadPoolD1Ev
_ZN13IlmThread_3_010ThreadPoolD2Ev
_ZN13IlmThread_3_015supportsThreadsEv
_ZN13IlmThread_3_018ThreadPoolProviderC2Ev
_ZN13IlmThread_3_018ThreadPoolProviderD0Ev
_ZN13IlmThread_3_018ThreadPoolProviderD1Ev
_ZN13IlmThread_3_018ThreadPoolProviderD2Ev
_ZN13IlmThread_3_04Task5groupEv
_ZN13IlmThread_3_04TaskC2EPNS_9TaskGroupE
_ZN13IlmThread_3_04TaskD0Ev
_ZN13IlmThread_3_04TaskD1Ev
_ZN13IlmThread_3_04TaskD2Ev
_ZN13IlmThread_3_06Thread4joinEv
_ZN13IlmThread_3_06Thread5startEv
_ZN13IlmThread_3_06ThreadC2Ev
_ZN13IlmThread_3_06ThreadD0Ev
_ZN13IlmThread_3_06ThreadD1Ev
_ZN13IlmThread_3_06ThreadD2Ev
_ZN13IlmThread_3_09Semaphore4postEv
_ZN13IlmThread_3_09Semaphore4waitEv
_ZN13IlmThread_3_09Semaphore7tryWaitEv
_ZN13IlmThread_3_09SemaphoreC1Ej
_ZN13IlmThread_3_09SemaphoreC2Ej
_ZN13IlmThread_3_09SemaphoreD0Ev
_ZN13IlmThread_3_09SemaphoreD1Ev
_ZN13IlmThread_3_09SemaphoreD2Ev
_ZN13IlmThread_3_09TaskGroup13finishOneTaskEv
_ZN13IlmThread_3_09TaskGroupC1Ev
_ZN13IlmThread_3_09TaskGroupC2Ev
_ZN13IlmThread_3_09TaskGroupD1Ev
_ZN13IlmThread_3_09TaskGroupD2Ev
_ZNK13IlmThread_3_010ThreadPool10numThreadsEv
_ZNK13IlmThread_3_06Thread8joinableEv
_ZNK13IlmThread_3_09Semaphore5valueEv
