;
; Definition file of libIex-3_0.dll
; Automatic generated by gendef
; written by Kai Tietz 2008
;
LIBRARY "libIex-3_0.dll"
EXPORTS
_Z13iex_debugTrapv
_ZN7Iex_3_010DivzeroExcC1EONSt3__112basic_stringIcNS1_11char_traitsIcEENS1_9allocatorIcEEEE
_ZN7Iex_3_010DivzeroExcC1EOS0_
_ZN7Iex_3_010DivzeroExcC1EPKc
_ZN7Iex_3_010DivzeroExcC1ERKNSt3__112basic_stringIcNS1_11char_traitsIcEENS1_9allocatorIcEEEE
_ZN7Iex_3_010DivzeroExcC1ERKS0_
_ZN7Iex_3_010DivzeroExcC1ERNSt3__118basic_stringstreamIcNS1_11char_traitsIcEENS1_9allocatorIcEEEE
_ZN7Iex_3_010DivzeroExcC1Ev
_ZN7Iex_3_010DivzeroExcC2EONSt3__112basic_stringIcNS1_11char_traitsIcEENS1_9allocatorIcEEEE
_ZN7Iex_3_010DivzeroExcC2EOS0_
_ZN7Iex_3_010DivzeroExcC2EPKc
_ZN7Iex_3_010DivzeroExcC2ERKNSt3__112basic_stringIcNS1_11char_traitsIcEENS1_9allocatorIcEEEE
_ZN7Iex_3_010DivzeroExcC2ERKS0_
_ZN7Iex_3_010DivzeroExcC2ERNSt3__118basic_stringstreamIcNS1_11char_traitsIcEENS1_9allocatorIcEEEE
_ZN7Iex_3_010DivzeroExcC2Ev
_ZN7Iex_3_010DivzeroExcD0Ev
_ZN7Iex_3_010DivzeroExcD1Ev
_ZN7Iex_3_010DivzeroExcD2Ev
_ZN7Iex_3_010DivzeroExcaSEOS0_
_ZN7Iex_3_010DivzeroExcaSERS0_
_ZN7Iex_3_010EbadmsgExcC1EONSt3__112basic_stringIcNS1_11char_traitsIcEENS1_9allocatorIcEEEE
_ZN7Iex_3_010EbadmsgExcC1EOS0_
_ZN7Iex_3_010EbadmsgExcC1EPKc
_ZN7Iex_3_010EbadmsgExcC1ERKNSt3__112basic_stringIcNS1_11char_traitsIcEENS1_9allocatorIcEEEE
_ZN7Iex_3_010EbadmsgExcC1ERKS0_
_ZN7Iex_3_010EbadmsgExcC1ERNSt3__118basic_stringstreamIcNS1_11char_traitsIcEENS1_9allocatorIcEEEE
_ZN7Iex_3_010EbadmsgExcC1Ev
_ZN7Iex_3_010EbadmsgExcC2EONSt3__112basic_stringIcNS1_11char_traitsIcEENS1_9allocatorIcEEEE
_ZN7Iex_3_010EbadmsgExcC2EOS0_
_ZN7Iex_3_010EbadmsgExcC2EPKc
_ZN7Iex_3_010EbadmsgExcC2ERKNSt3__112basic_stringIcNS1_11char_traitsIcEENS1_9allocatorIcEEEE
_ZN7Iex_3_010EbadmsgExcC2ERKS0_
_ZN7Iex_3_010EbadmsgExcC2ERNSt3__118basic_stringstreamIcNS1_11char_traitsIcEENS1_9allocatorIcEEEE
_ZN7Iex_3_010EbadmsgExcC2Ev
_ZN7Iex_3_010EbadmsgExcD0Ev
_ZN7Iex_3_010EbadmsgExcD1Ev
_ZN7Iex_3_010EbadmsgExcD2Ev
_ZN7Iex_3_010EbadmsgExcaSEOS0_
_ZN7Iex_3_010EbadmsgExcaSERS0_
_ZN7Iex_3_010EbadrqcExcC1EONSt3__112basic_stringIcNS1_11char_traitsIcEENS1_9allocatorIcEEEE
_ZN7Iex_3_010EbadrqcExcC1EOS0_
_ZN7Iex_3_010EbadrqcExcC1EPKc
_ZN7Iex_3_010EbadrqcExcC1ERKNSt3__112basic_stringIcNS1_11char_traitsIcEENS1_9allocatorIcEEEE
_ZN7Iex_3_010EbadrqcExcC1ERKS0_
_ZN7Iex_3_010EbadrqcExcC1ERNSt3__118basic_stringstreamIcNS1_11char_traitsIcEENS1_9allocatorIcEEEE
_ZN7Iex_3_010EbadrqcExcC1Ev
_ZN7Iex_3_010EbadrqcExcC2EONSt3__112basic_stringIcNS1_11char_traitsIcEENS1_9allocatorIcEEEE
_ZN7Iex_3_010EbadrqcExcC2EOS0_
_ZN7Iex_3_010EbadrqcExcC2EPKc
_ZN7Iex_3_010EbadrqcExcC2ERKNSt3__112basic_stringIcNS1_11char_traitsIcEENS1_9allocatorIcEEEE
_ZN7Iex_3_010EbadrqcExcC2ERKS0_
_ZN7Iex_3_010EbadrqcExcC2ERNSt3__118basic_stringstreamIcNS1_11char_traitsIcEENS1_9allocatorIcEEEE
_ZN7Iex_3_010EbadrqcExcC2Ev
_ZN7Iex_3_010EbadrqcExcD0Ev
_ZN7Iex_3_010EbadrqcExcD1Ev
_ZN7Iex_3_010EbadrqcExcD2Ev
_ZN7Iex_3_010EbadrqcExcaSEOS0_
_ZN7Iex_3_010EbadrqcExcaSERS0_
_ZN7Iex_3_010EbadsltExcC1EONSt3__112basic_stringIcNS1_11char_traitsIcEENS1_9allocatorIcEEEE
_ZN7Iex_3_010EbadsltExcC1EOS0_
_ZN7Iex_3_010EbadsltExcC1EPKc
_ZN7Iex_3_010EbadsltExcC1ERKNSt3__112basic_stringIcNS1_11char_traitsIcEENS1_9allocatorIcEEEE
_ZN7Iex_3_010EbadsltExcC1ERKS0_
_ZN7Iex_3_010EbadsltExcC1ERNSt3__118basic_stringstreamIcNS1_11char_traitsIcEENS1_9allocatorIcEEEE
_ZN7Iex_3_010EbadsltExcC1Ev
_ZN7Iex_3_010EbadsltExcC2EONSt3__112basic_stringIcNS1_11char_traitsIcEENS1_9allocatorIcEEEE
_ZN7Iex_3_010EbadsltExcC2EOS0_
_ZN7Iex_3_010EbadsltExcC2EPKc
_ZN7Iex_3_010EbadsltExcC2ERKNSt3__112basic_stringIcNS1_11char_traitsIcEENS1_9allocatorIcEEEE
_ZN7Iex_3_010EbadsltExcC2ERKS0_
_ZN7Iex_3_010EbadsltExcC2ERNSt3__118basic_stringstreamIcNS1_11char_traitsIcEENS1_9allocatorIcEEEE
_ZN7Iex_3_010EbadsltExcC2Ev
_ZN7Iex_3_010EbadsltExcD0Ev
_ZN7Iex_3_010EbadsltExcD1Ev
_ZN7Iex_3_010EbadsltExcD2Ev
_ZN7Iex_3_010EbadsltExcaSEOS0_
_ZN7Iex_3_010EbadsltExcaSERS0_
_ZN7Iex_3_010EdeadlkExcC1EONSt3__112basic_stringIcNS1_11char_traitsIcEENS1_9allocatorIcEEEE
_ZN7Iex_3_010EdeadlkExcC1EOS0_
_ZN7Iex_3_010EdeadlkExcC1EPKc
_ZN7Iex_3_010EdeadlkExcC1ERKNSt3__112basic_stringIcNS1_11char_traitsIcEENS1_9allocatorIcEEEE
_ZN7Iex_3_010EdeadlkExcC1ERKS0_
_ZN7Iex_3_010EdeadlkExcC1ERNSt3__118basic_stringstreamIcNS1_11char_traitsIcEENS1_9allocatorIcEEEE
_ZN7Iex_3_010EdeadlkExcC1Ev
_ZN7Iex_3_010EdeadlkExcC2EONSt3__112basic_stringIcNS1_11char_traitsIcEENS1_9allocatorIcEEEE
_ZN7Iex_3_010EdeadlkExcC2EOS0_
_ZN7Iex_3_010EdeadlkExcC2EPKc
_ZN7Iex_3_010EdeadlkExcC2ERKNSt3__112basic_stringIcNS1_11char_traitsIcEENS1_9allocatorIcEEEE
_ZN7Iex_3_010EdeadlkExcC2ERKS0_
_ZN7Iex_3_010EdeadlkExcC2ERNSt3__118basic_stringstreamIcNS1_11char_traitsIcEENS1_9allocatorIcEEEE
_ZN7Iex_3_010EdeadlkExcC2Ev
_ZN7Iex_3_010EdeadlkExcD0Ev
_ZN7Iex_3_010EdeadlkExcD1Ev
_ZN7Iex_3_010EdeadlkExcD2Ev
_ZN7Iex_3_010EdeadlkExcaSEOS0_
_ZN7Iex_3_010EdeadlkExcaSERS0_
_ZN7Iex_3_010EisconnExcC1EONSt3__112basic_stringIcNS1_11char_traitsIcEENS1_9allocatorIcEEEE
_ZN7Iex_3_010EisconnExcC1EOS0_
_ZN7Iex_3_010EisconnExcC1EPKc
_ZN7Iex_3_010EisconnExcC1ERKNSt3__112basic_stringIcNS1_11char_traitsIcEENS1_9allocatorIcEEEE
_ZN7Iex_3_010EisconnExcC1ERKS0_
_ZN7Iex_3_010EisconnExcC1ERNSt3__118basic_stringstreamIcNS1_11char_traitsIcEENS1_9allocatorIcEEEE
_ZN7Iex_3_010EisconnExcC1Ev
_ZN7Iex_3_010EisconnExcC2EONSt3__112basic_stringIcNS1_11char_traitsIcEENS1_9allocatorIcEEEE
_ZN7Iex_3_010EisconnExcC2EOS0_
_ZN7Iex_3_010EisconnExcC2EPKc
_ZN7Iex_3_010EisconnExcC2ERKNSt3__112basic_stringIcNS1_11char_traitsIcEENS1_9allocatorIcEEEE
_ZN7Iex_3_010EisconnExcC2ERKS0_
_ZN7Iex_3_010EisconnExcC2ERNSt3__118basic_stringstreamIcNS1_11char_traitsIcEENS1_9allocatorIcEEEE
_ZN7Iex_3_010EisconnExcC2Ev
_ZN7Iex_3_010EisconnExcD0Ev
_ZN7Iex_3_010EisconnExcD1Ev
_ZN7Iex_3_010EisconnExcD2Ev
_ZN7Iex_3_010EisconnExcaSEOS0_
_ZN7Iex_3_010EisconnExcaSERS0_
_ZN7Iex_3_010EjoinedExcC1EONSt3__112basic_stringIcNS1_11char_traitsIcEENS1_9allocatorIcEEEE
_ZN7Iex_3_010EjoinedExcC1EOS0_
_ZN7Iex_3_010EjoinedExcC1EPKc
_ZN7Iex_3_010EjoinedExcC1ERKNSt3__112basic_stringIcNS1_11char_traitsIcEENS1_9allocatorIcEEEE
_ZN7Iex_3_010EjoinedExcC1ERKS0_
_ZN7Iex_3_010EjoinedExcC1ERNSt3__118basic_stringstreamIcNS1_11char_traitsIcEENS1_9allocatorIcEEEE
_ZN7Iex_3_010EjoinedExcC1Ev
_ZN7Iex_3_010EjoinedExcC2EONSt3__112basic_stringIcNS1_11char_traitsIcEENS1_9allocatorIcEEEE
_ZN7Iex_3_010EjoinedExcC2EOS0_
_ZN7Iex_3_010EjoinedExcC2EPKc
_ZN7Iex_3_010EjoinedExcC2ERKNSt3__112basic_stringIcNS1_11char_traitsIcEENS1_9allocatorIcEEEE
_ZN7Iex_3_010EjoinedExcC2ERKS0_
_ZN7Iex_3_010EjoinedExcC2ERNSt3__118basic_stringstreamIcNS1_11char_traitsIcEENS1_9allocatorIcEEEE
_ZN7Iex_3_010EjoinedExcC2Ev
_ZN7Iex_3_010EjoinedExcD0Ev
_ZN7Iex_3_010EjoinedExcD1Ev
_ZN7Iex_3_010EjoinedExcD2Ev
_ZN7Iex_3_010EjoinedExcaSEOS0_
_ZN7Iex_3_010EjoinedExcaSERS0_
_ZN7Iex_3_010ElibaccExcC1EONSt3__112basic_stringIcNS1_11char_traitsIcEENS1_9allocatorIcEEEE
_ZN7Iex_3_010ElibaccExcC1EOS0_
_ZN7Iex_3_010ElibaccExcC1EPKc
_ZN7Iex_3_010ElibaccExcC1ERKNSt3__112basic_stringIcNS1_11char_traitsIcEENS1_9allocatorIcEEEE
_ZN7Iex_3_010ElibaccExcC1ERKS0_
_ZN7Iex_3_010ElibaccExcC1ERNSt3__118basic_stringstreamIcNS1_11char_traitsIcEENS1_9allocatorIcEEEE
_ZN7Iex_3_010ElibaccExcC1Ev
_ZN7Iex_3_010ElibaccExcC2EONSt3__112basic_stringIcNS1_11char_traitsIcEENS1_9allocatorIcEEEE
_ZN7Iex_3_010ElibaccExcC2EOS0_
_ZN7Iex_3_010ElibaccExcC2EPKc
_ZN7Iex_3_010ElibaccExcC2ERKNSt3__112basic_stringIcNS1_11char_traitsIcEENS1_9allocatorIcEEEE
_ZN7Iex_3_010ElibaccExcC2ERKS0_
_ZN7Iex_3_010ElibaccExcC2ERNSt3__118basic_stringstreamIcNS1_11char_traitsIcEENS1_9allocatorIcEEEE
_ZN7Iex_3_010ElibaccExcC2Ev
_ZN7Iex_3_010ElibaccExcD0Ev
_ZN7Iex_3_010ElibaccExcD1Ev
_ZN7Iex_3_010ElibaccExcD2Ev
_ZN7Iex_3_010ElibaccExcaSEOS0_
_ZN7Iex_3_010ElibaccExcaSERS0_
_ZN7Iex_3_010ElibbadExcC1EONSt3__112basic_stringIcNS1_11char_traitsIcEENS1_9allocatorIcEEEE
_ZN7Iex_3_010ElibbadExcC1EOS0_
_ZN7Iex_3_010ElibbadExcC1EPKc
_ZN7Iex_3_010ElibbadExcC1ERKNSt3__112basic_stringIcNS1_11char_traitsIcEENS1_9allocatorIcEEEE
_ZN7Iex_3_010ElibbadExcC1ERKS0_
_ZN7Iex_3_010ElibbadExcC1ERNSt3__118basic_stringstreamIcNS1_11char_traitsIcEENS1_9allocatorIcEEEE
_ZN7Iex_3_010ElibbadExcC1Ev
_ZN7Iex_3_010ElibbadExcC2EONSt3__112basic_stringIcNS1_11char_traitsIcEENS1_9allocatorIcEEEE
_ZN7Iex_3_010ElibbadExcC2EOS0_
_ZN7Iex_3_010ElibbadExcC2EPKc
_ZN7Iex_3_010ElibbadExcC2ERKNSt3__112basic_stringIcNS1_11char_traitsIcEENS1_9allocatorIcEEEE
_ZN7Iex_3_010ElibbadExcC2ERKS0_
_ZN7Iex_3_010ElibbadExcC2ERNSt3__118basic_stringstreamIcNS1_11char_traitsIcEENS1_9allocatorIcEEEE
_ZN7Iex_3_010ElibbadExcC2Ev
_ZN7Iex_3_010ElibbadExcD0Ev
_ZN7Iex_3_010ElibbadExcD1Ev
_ZN7Iex_3_010ElibbadExcD2Ev
_ZN7Iex_3_010ElibbadExcaSEOS0_
_ZN7Iex_3_010ElibbadExcaSERS0_
_ZN7Iex_3_010ElibmaxExcC1EONSt3__112basic_stringIcNS1_11char_traitsIcEENS1_9allocatorIcEEEE
_ZN7Iex_3_010ElibmaxExcC1EOS0_
_ZN7Iex_3_010ElibmaxExcC1EPKc
_ZN7Iex_3_010ElibmaxExcC1ERKNSt3__112basic_stringIcNS1_11char_traitsIcEENS1_9allocatorIcEEEE
_ZN7Iex_3_010ElibmaxExcC1ERKS0_
_ZN7Iex_3_010ElibmaxExcC1ERNSt3__118basic_stringstreamIcNS1_11char_traitsIcEENS1_9allocatorIcEEEE
_ZN7Iex_3_010ElibmaxExcC1Ev
_ZN7Iex_3_010ElibmaxExcC2EONSt3__112basic_stringIcNS1_11char_traitsIcEENS1_9allocatorIcEEEE
_ZN7Iex_3_010ElibmaxExcC2EOS0_
_ZN7Iex_3_010ElibmaxExcC2EPKc
_ZN7Iex_3_010ElibmaxExcC2ERKNSt3__112basic_stringIcNS1_11char_traitsIcEENS1_9allocatorIcEEEE
_ZN7Iex_3_010ElibmaxExcC2ERKS0_
_ZN7Iex_3_010ElibmaxExcC2ERNSt3__118basic_stringstreamIcNS1_11char_traitsIcEENS1_9allocatorIcEEEE
_ZN7Iex_3_010ElibmaxExcC2Ev
_ZN7Iex_3_010ElibmaxExcD0Ev
_ZN7Iex_3_010ElibmaxExcD1Ev
_ZN7Iex_3_010ElibmaxExcD2Ev
_ZN7Iex_3_010ElibmaxExcaSEOS0_
_ZN7Iex_3_010ElibmaxExcaSERS0_
_ZN7Iex_3_010ElibscnExcC1EONSt3__112basic_stringIcNS1_11char_traitsIcEENS1_9allocatorIcEEEE
_ZN7Iex_3_010ElibscnExcC1EOS0_
_ZN7Iex_3_010ElibscnExcC1EPKc
_ZN7Iex_3_010ElibscnExcC1ERKNSt3__112basic_stringIcNS1_11char_traitsIcEENS1_9allocatorIcEEEE
_ZN7Iex_3_010ElibscnExcC1ERKS0_
_ZN7Iex_3_010ElibscnExcC1ERNSt3__118basic_stringstreamIcNS1_11char_traitsIcEENS1_9allocatorIcEEEE
_ZN7Iex_3_010ElibscnExcC1Ev
_ZN7Iex_3_010ElibscnExcC2EONSt3__112basic_stringIcNS1_11char_traitsIcEENS1_9allocatorIcEEEE
_ZN7Iex_3_010ElibscnExcC2EOS0_
_ZN7Iex_3_010ElibscnExcC2EPKc
_ZN7Iex_3_010ElibscnExcC2ERKNSt3__112basic_stringIcNS1_11char_traitsIcEENS1_9allocatorIcEEEE
_ZN7Iex_3_010ElibscnExcC2ERKS0_
_ZN7Iex_3_010ElibscnExcC2ERNSt3__118basic_stringstreamIcNS1_11char_traitsIcEENS1_9allocatorIcEEEE
_ZN7Iex_3_010ElibscnExcC2Ev
_ZN7Iex_3_010ElibscnExcD0Ev
_ZN7Iex_3_010ElibscnExcD1Ev
_ZN7Iex_3_010ElibscnExcD2Ev
_ZN7Iex_3_010ElibscnExcaSEOS0_
_ZN7Iex_3_010ElibscnExcaSERS0_
_ZN7Iex_3_010EnavailExcC1EONSt3__112basic_stringIcNS1_11char_traitsIcEENS1_9allocatorIcEEEE
_ZN7Iex_3_010EnavailExcC1EOS0_
_ZN7Iex_3_010EnavailExcC1EPKc
_ZN7Iex_3_010EnavailExcC1ERKNSt3__112basic_stringIcNS1_11char_traitsIcEENS1_9allocatorIcEEEE
_ZN7Iex_3_010EnavailExcC1ERKS0_
_ZN7Iex_3_010EnavailExcC1ERNSt3__118basic_stringstreamIcNS1_11char_traitsIcEENS1_9allocatorIcEEEE
_ZN7Iex_3_010EnavailExcC1Ev
_ZN7Iex_3_010EnavailExcC2EONSt3__112basic_stringIcNS1_11char_traitsIcEENS1_9allocatorIcEEEE
_ZN7Iex_3_010EnavailExcC2EOS0_
_ZN7Iex_3_010EnavailExcC2EPKc
_ZN7Iex_3_010EnavailExcC2ERKNSt3__112basic_stringIcNS1_11char_traitsIcEENS1_9allocatorIcEEEE
_ZN7Iex_3_010EnavailExcC2ERKS0_
_ZN7Iex_3_010EnavailExcC2ERNSt3__118basic_stringstreamIcNS1_11char_traitsIcEENS1_9allocatorIcEEEE
_ZN7Iex_3_010EnavailExcC2Ev
_ZN7Iex_3_010EnavailExcD0Ev
_ZN7Iex_3_010EnavailExcD1Ev
_ZN7Iex_3_010EnavailExcD2Ev
_ZN7Iex_3_010EnavailExcaSEOS0_
_ZN7Iex_3_010EnavailExcaSERS0_
_ZN7Iex_3_010EnoattrExcC1EONSt3__112basic_stringIcNS1_11char_traitsIcEENS1_9allocatorIcEEEE
_ZN7Iex_3_010EnoattrExcC1EOS0_
_ZN7Iex_3_010EnoattrExcC1EPKc
_ZN7Iex_3_010EnoattrExcC1ERKNSt3__112basic_stringIcNS1_11char_traitsIcEENS1_9allocatorIcEEEE
_ZN7Iex_3_010EnoattrExcC1ERKS0_
_ZN7Iex_3_010EnoattrExcC1ERNSt3__118basic_stringstreamIcNS1_11char_traitsIcEENS1_9allocatorIcEEEE
_ZN7Iex_3_010EnoattrExcC1Ev
_ZN7Iex_3_010EnoattrExcC2EONSt3__112basic_stringIcNS1_11char_traitsIcEENS1_9allocatorIcEEEE
_ZN7Iex_3_010EnoattrExcC2EOS0_
_ZN7Iex_3_010EnoattrExcC2EPKc
_ZN7Iex_3_010EnoattrExcC2ERKNSt3__112basic_stringIcNS1_11char_traitsIcEENS1_9allocatorIcEEEE
_ZN7Iex_3_010EnoattrExcC2ERKS0_
_ZN7Iex_3_010EnoattrExcC2ERNSt3__118basic_stringstreamIcNS1_11char_traitsIcEENS1_9allocatorIcEEEE
_ZN7Iex_3_010EnoattrExcC2Ev
_ZN7Iex_3_010EnoattrExcD0Ev
_ZN7Iex_3_010EnoattrExcD1Ev
_ZN7Iex_3_010EnoattrExcD2Ev
_ZN7Iex_3_010EnoattrExcaSEOS0_
_ZN7Iex_3_010EnoattrExcaSERS0_
_ZN7Iex_3_010EnobufsExcC1EONSt3__112basic_stringIcNS1_11char_traitsIcEENS1_9allocatorIcEEEE
_ZN7Iex_3_010EnobufsExcC1EOS0_
_ZN7Iex_3_010EnobufsExcC1EPKc
_ZN7Iex_3_010EnobufsExcC1ERKNSt3__112basic_stringIcNS1_11char_traitsIcEENS1_9allocatorIcEEEE
_ZN7Iex_3_010EnobufsExcC1ERKS0_
_ZN7Iex_3_010EnobufsExcC1ERNSt3__118basic_stringstreamIcNS1_11char_traitsIcEENS1_9allocatorIcEEEE
_ZN7Iex_3_010EnobufsExcC1Ev
_ZN7Iex_3_010EnobufsExcC2EONSt3__112basic_stringIcNS1_11char_traitsIcEENS1_9allocatorIcEEEE
_ZN7Iex_3_010EnobufsExcC2EOS0_
_ZN7Iex_3_010EnobufsExcC2EPKc
_ZN7Iex_3_010EnobufsExcC2ERKNSt3__112basic_stringIcNS1_11char_traitsIcEENS1_9allocatorIcEEEE
_ZN7Iex_3_010EnobufsExcC2ERKS0_
_ZN7Iex_3_010EnobufsExcC2ERNSt3__118basic_stringstreamIcNS1_11char_traitsIcEENS1_9allocatorIcEEEE
_ZN7Iex_3_010EnobufsExcC2Ev
_ZN7Iex_3_010EnobufsExcD0Ev
_ZN7Iex_3_010EnobufsExcD1Ev
_ZN7Iex_3_010EnobufsExcD2Ev
_ZN7Iex_3_010EnobufsExcaSEOS0_
_ZN7Iex_3_010EnobufsExcaSERS0_
_ZN7Iex_3_010EnodataExcC1EONSt3__112basic_stringIcNS1_11char_traitsIcEENS1_9allocatorIcEEEE
_ZN7Iex_3_010EnodataExcC1EOS0_
_ZN7Iex_3_010EnodataExcC1EPKc
_ZN7Iex_3_010EnodataExcC1ERKNSt3__112basic_stringIcNS1_11char_traitsIcEENS1_9allocatorIcEEEE
_ZN7Iex_3_010EnodataExcC1ERKS0_
_ZN7Iex_3_010EnodataExcC1ERNSt3__118basic_stringstreamIcNS1_11char_traitsIcEENS1_9allocatorIcEEEE
_ZN7Iex_3_010EnodataExcC1Ev
_ZN7Iex_3_010EnodataExcC2EONSt3__112basic_stringIcNS1_11char_traitsIcEENS1_9allocatorIcEEEE
_ZN7Iex_3_010EnodataExcC2EOS0_
_ZN7Iex_3_010EnodataExcC2EPKc
_ZN7Iex_3_010EnodataExcC2ERKNSt3__112basic_stringIcNS1_11char_traitsIcEENS1_9allocatorIcEEEE
_ZN7Iex_3_010EnodataExcC2ERKS0_
_ZN7Iex_3_010EnodataExcC2ERNSt3__118basic_stringstreamIcNS1_11char_traitsIcEENS1_9allocatorIcEEEE
_ZN7Iex_3_010EnodataExcC2Ev
_ZN7Iex_3_010EnodataExcD0Ev
_ZN7Iex_3_010EnodataExcD1Ev
_ZN7Iex_3_010EnodataExcD2Ev
_ZN7Iex_3_010EnodataExcaSEOS0_
_ZN7Iex_3_010EnodataExcaSERS0_
_ZN7Iex_3_010EnoexecExcC1EONSt3__112basic_stringIcNS1_11char_traitsIcEENS1_9allocatorIcEEEE
_ZN7Iex_3_010EnoexecExcC1EOS0_
_ZN7Iex_3_010EnoexecExcC1EPKc
_ZN7Iex_3_010EnoexecExcC1ERKNSt3__112basic_stringIcNS1_11char_traitsIcEENS1_9allocatorIcEEEE
_ZN7Iex_3_010EnoexecExcC1ERKS0_
_ZN7Iex_3_010EnoexecExcC1ERNSt3__118basic_stringstreamIcNS1_11char_traitsIcEENS1_9allocatorIcEEEE
_ZN7Iex_3_010EnoexecExcC1Ev
_ZN7Iex_3_010EnoexecExcC2EONSt3__112basic_stringIcNS1_11char_traitsIcEENS1_9allocatorIcEEEE
_ZN7Iex_3_010EnoexecExcC2EOS0_
_ZN7Iex_3_010EnoexecExcC2EPKc
_ZN7Iex_3_010EnoexecExcC2ERKNSt3__112basic_stringIcNS1_11char_traitsIcEENS1_9allocatorIcEEEE
_ZN7Iex_3_010EnoexecExcC2ERKS0_
_ZN7Iex_3_010EnoexecExcC2ERNSt3__118basic_stringstreamIcNS1_11char_traitsIcEENS1_9allocatorIcEEEE
_ZN7Iex_3_010EnoexecExcC2Ev
_ZN7Iex_3_010EnoexecExcD0Ev
_ZN7Iex_3_010EnoexecExcD1Ev
_ZN7Iex_3_010EnoexecExcD2Ev
_ZN7Iex_3_010EnoexecExcaSEOS0_
_ZN7Iex_3_010EnoexecExcaSERS0_
_ZN7Iex_3_010EnolinkExcC1EONSt3__112basic_stringIcNS1_11char_traitsIcEENS1_9allocatorIcEEEE
_ZN7Iex_3_010EnolinkExcC1EOS0_
_ZN7Iex_3_010EnolinkExcC1EPKc
_ZN7Iex_3_010EnolinkExcC1ERKNSt3__112basic_stringIcNS1_11char_traitsIcEENS1_9allocatorIcEEEE
_ZN7Iex_3_010EnolinkExcC1ERKS0_
_ZN7Iex_3_010EnolinkExcC1ERNSt3__118basic_stringstreamIcNS1_11char_traitsIcEENS1_9allocatorIcEEEE
_ZN7Iex_3_010EnolinkExcC1Ev
_ZN7Iex_3_010EnolinkExcC2EONSt3__112basic_stringIcNS1_11char_traitsIcEENS1_9allocatorIcEEEE
_ZN7Iex_3_010EnolinkExcC2EOS0_
_ZN7Iex_3_010EnolinkExcC2EPKc
_ZN7Iex_3_010EnolinkExcC2ERKNSt3__112basic_stringIcNS1_11char_traitsIcEENS1_9allocatorIcEEEE
_ZN7Iex_3_010EnolinkExcC2ERKS0_
_ZN7Iex_3_010EnolinkExcC2ERNSt3__118basic_stringstreamIcNS1_11char_traitsIcEENS1_9allocatorIcEEEE
_ZN7Iex_3_010EnolinkExcC2Ev
_ZN7Iex_3_010EnolinkExcD0Ev
_ZN7Iex_3_010EnolinkExcD1Ev
_ZN7Iex_3_010EnolinkExcD2Ev
_ZN7Iex_3_010EnolinkExcaSEOS0_
_ZN7Iex_3_010EnolinkExcaSERS0_
_ZN7Iex_3_010EnoprocExcC1EONSt3__112basic_stringIcNS1_11char_traitsIcEENS1_9allocatorIcEEEE
_ZN7Iex_3_010EnoprocExcC1EOS0_
_ZN7Iex_3_010EnoprocExcC1EPKc
_ZN7Iex_3_010EnoprocExcC1ERKNSt3__112basic_stringIcNS1_11char_traitsIcEENS1_9allocatorIcEEEE
_ZN7Iex_3_010EnoprocExcC1ERKS0_
_ZN7Iex_3_010EnoprocExcC1ERNSt3__118basic_stringstreamIcNS1_11char_traitsIcEENS1_9allocatorIcEEEE
_ZN7Iex_3_010EnoprocExcC1Ev
_ZN7Iex_3_010EnoprocExcC2EONSt3__112basic_stringIcNS1_11char_traitsIcEENS1_9allocatorIcEEEE
_ZN7Iex_3_010EnoprocExcC2EOS0_
_ZN7Iex_3_010EnoprocExcC2EPKc
_ZN7Iex_3_010EnoprocExcC2ERKNSt3__112basic_stringIcNS1_11char_traitsIcEENS1_9allocatorIcEEEE
_ZN7Iex_3_010EnoprocExcC2ERKS0_
_ZN7Iex_3_010EnoprocExcC2ERNSt3__118basic_stringstreamIcNS1_11char_traitsIcEENS1_9allocatorIcEEEE
_ZN7Iex_3_010EnoprocExcC2Ev
_ZN7Iex_3_010EnoprocExcD0Ev
_ZN7Iex_3_010EnoprocExcD1Ev
_ZN7Iex_3_010EnoprocExcD2Ev
_ZN7Iex_3_010EnoprocExcaSEOS0_
_ZN7Iex_3_010EnoprocExcaSERS0_
_ZN7Iex_3_010EnotblkExcC1EONSt3__112basic_stringIcNS1_11char_traitsIcEENS1_9allocatorIcEEEE
_ZN7Iex_3_010EnotblkExcC1EOS0_
_ZN7Iex_3_010EnotblkExcC1EPKc
_ZN7Iex_3_010EnotblkExcC1ERKNSt3__112basic_stringIcNS1_11char_traitsIcEENS1_9allocatorIcEEEE
_ZN7Iex_3_010EnotblkExcC1ERKS0_
_ZN7Iex_3_010EnotblkExcC1ERNSt3__118basic_stringstreamIcNS1_11char_traitsIcEENS1_9allocatorIcEEEE
_ZN7Iex_3_010EnotblkExcC1Ev
_ZN7Iex_3_010EnotblkExcC2EONSt3__112basic_stringIcNS1_11char_traitsIcEENS1_9allocatorIcEEEE
_ZN7Iex_3_010EnotblkExcC2EOS0_
_ZN7Iex_3_010EnotblkExcC2EPKc
_ZN7Iex_3_010EnotblkExcC2ERKNSt3__112basic_stringIcNS1_11char_traitsIcEENS1_9allocatorIcEEEE
_ZN7Iex_3_010EnotblkExcC2ERKS0_
_ZN7Iex_3_010EnotblkExcC2ERNSt3__118basic_stringstreamIcNS1_11char_traitsIcEENS1_9allocatorIcEEEE
_ZN7Iex_3_010EnotblkExcC2Ev
_ZN7Iex_3_010EnotblkExcD0Ev
_ZN7Iex_3_010EnotblkExcD1Ev
_ZN7Iex_3_010EnotblkExcD2Ev
_ZN7Iex_3_010EnotblkExcaSEOS0_
_ZN7Iex_3_010EnotblkExcaSERS0_
_ZN7Iex_3_010EnotdirExcC1EONSt3__112basic_stringIcNS1_11char_traitsIcEENS1_9allocatorIcEEEE
_ZN7Iex_3_010EnotdirExcC1EOS0_
_ZN7Iex_3_010EnotdirExcC1EPKc
_ZN7Iex_3_010EnotdirExcC1ERKNSt3__112basic_stringIcNS1_11char_traitsIcEENS1_9allocatorIcEEEE
_ZN7Iex_3_010EnotdirExcC1ERKS0_
_ZN7Iex_3_010EnotdirExcC1ERNSt3__118basic_stringstreamIcNS1_11char_traitsIcEENS1_9allocatorIcEEEE
_ZN7Iex_3_010EnotdirExcC1Ev
_ZN7Iex_3_010EnotdirExcC2EONSt3__112basic_stringIcNS1_11char_traitsIcEENS1_9allocatorIcEEEE
_ZN7Iex_3_010EnotdirExcC2EOS0_
_ZN7Iex_3_010EnotdirExcC2EPKc
_ZN7Iex_3_010EnotdirExcC2ERKNSt3__112basic_stringIcNS1_11char_traitsIcEENS1_9allocatorIcEEEE
_ZN7Iex_3_010EnotdirExcC2ERKS0_
_ZN7Iex_3_010EnotdirExcC2ERNSt3__118basic_stringstreamIcNS1_11char_traitsIcEENS1_9allocatorIcEEEE
_ZN7Iex_3_010EnotdirExcC2Ev
_ZN7Iex_3_010EnotdirExcD0Ev
_ZN7Iex_3_010EnotdirExcD1Ev
_ZN7Iex_3_010EnotdirExcD2Ev
_ZN7Iex_3_010EnotdirExcaSEOS0_
_ZN7Iex_3_010EnotdirExcaSERS0_
_ZN7Iex_3_010EnotnamExcC1EONSt3__112basic_stringIcNS1_11char_traitsIcEENS1_9allocatorIcEEEE
_ZN7Iex_3_010EnotnamExcC1EOS0_
_ZN7Iex_3_010EnotnamExcC1EPKc
_ZN7Iex_3_010EnotnamExcC1ERKNSt3__112basic_stringIcNS1_11char_traitsIcEENS1_9allocatorIcEEEE
_ZN7Iex_3_010EnotnamExcC1ERKS0_
_ZN7Iex_3_010EnotnamExcC1ERNSt3__118basic_stringstreamIcNS1_11char_traitsIcEENS1_9allocatorIcEEEE
_ZN7Iex_3_010EnotnamExcC1Ev
_ZN7Iex_3_010EnotnamExcC2EONSt3__112basic_stringIcNS1_11char_traitsIcEENS1_9allocatorIcEEEE
_ZN7Iex_3_010EnotnamExcC2EOS0_
_ZN7Iex_3_010EnotnamExcC2EPKc
_ZN7Iex_3_010EnotnamExcC2ERKNSt3__112basic_stringIcNS1_11char_traitsIcEENS1_9allocatorIcEEEE
_ZN7Iex_3_010EnotnamExcC2ERKS0_
_ZN7Iex_3_010EnotnamExcC2ERNSt3__118basic_stringstreamIcNS1_11char_traitsIcEENS1_9allocatorIcEEEE
_ZN7Iex_3_010EnotnamExcC2Ev
_ZN7Iex_3_010EnotnamExcD0Ev
_ZN7Iex_3_010EnotnamExcD1Ev
_ZN7Iex_3_010EnotnamExcD2Ev
_ZN7Iex_3_010EnotnamExcaSEOS0_
_ZN7Iex_3_010EnotnamExcaSERS0_
_ZN7Iex_3_010EnotsupExcC1EONSt3__112basic_stringIcNS1_11char_traitsIcEENS1_9allocatorIcEEEE
_ZN7Iex_3_010EnotsupExcC1EOS0_
_ZN7Iex_3_010EnotsupExcC1EPKc
_ZN7Iex_3_010EnotsupExcC1ERKNSt3__112basic_stringIcNS1_11char_traitsIcEENS1_9allocatorIcEEEE
_ZN7Iex_3_010EnotsupExcC1ERKS0_
_ZN7Iex_3_010EnotsupExcC1ERNSt3__118basic_stringstreamIcNS1_11char_traitsIcEENS1_9allocatorIcEEEE
_ZN7Iex_3_010EnotsupExcC1Ev
_ZN7Iex_3_010EnotsupExcC2EONSt3__112basic_stringIcNS1_11char_traitsIcEENS1_9allocatorIcEEEE
_ZN7Iex_3_010EnotsupExcC2EOS0_
_ZN7Iex_3_010EnotsupExcC2EPKc
_ZN7Iex_3_010EnotsupExcC2ERKNSt3__112basic_stringIcNS1_11char_traitsIcEENS1_9allocatorIcEEEE
_ZN7Iex_3_010EnotsupExcC2ERKS0_
_ZN7Iex_3_010EnotsupExcC2ERNSt3__118basic_stringstreamIcNS1_11char_traitsIcEENS1_9allocatorIcEEEE
_ZN7Iex_3_010EnotsupExcC2Ev
_ZN7Iex_3_010EnotsupExcD0Ev
_ZN7Iex_3_010EnotsupExcD1Ev
_ZN7Iex_3_010EnotsupExcD2Ev
_ZN7Iex_3_010EnotsupExcaSEOS0_
_ZN7Iex_3_010EnotsupExcaSERS0_
_ZN7Iex_3_010EremchgExcC1EONSt3__112basic_stringIcNS1_11char_traitsIcEENS1_9allocatorIcEEEE
_ZN7Iex_3_010EremchgExcC1EOS0_
_ZN7Iex_3_010EremchgExcC1EPKc
_ZN7Iex_3_010EremchgExcC1ERKNSt3__112basic_stringIcNS1_11char_traitsIcEENS1_9allocatorIcEEEE
_ZN7Iex_3_010EremchgExcC1ERKS0_
_ZN7Iex_3_010EremchgExcC1ERNSt3__118basic_stringstreamIcNS1_11char_traitsIcEENS1_9allocatorIcEEEE
_ZN7Iex_3_010EremchgExcC1Ev
_ZN7Iex_3_010EremchgExcC2EONSt3__112basic_stringIcNS1_11char_traitsIcEENS1_9allocatorIcEEEE
_ZN7Iex_3_010EremchgExcC2EOS0_
_ZN7Iex_3_010EremchgExcC2EPKc
_ZN7Iex_3_010EremchgExcC2ERKNSt3__112basic_stringIcNS1_11char_traitsIcEENS1_9allocatorIcEEEE
_ZN7Iex_3_010EremchgExcC2ERKS0_
_ZN7Iex_3_010EremchgExcC2ERNSt3__118basic_stringstreamIcNS1_11char_traitsIcEENS1_9allocatorIcEEEE
_ZN7Iex_3_010EremchgExcC2Ev
_ZN7Iex_3_010EremchgExcD0Ev
_ZN7Iex_3_010EremchgExcD1Ev
_ZN7Iex_3_010EremchgExcD2Ev
_ZN7Iex_3_010EremchgExcaSEOS0_
_ZN7Iex_3_010EremchgExcaSERS0_
_ZN7Iex_3_010EremdevExcC1EONSt3__112basic_stringIcNS1_11char_traitsIcEENS1_9allocatorIcEEEE
_ZN7Iex_3_010EremdevExcC1EOS0_
_ZN7Iex_3_010EremdevExcC1EPKc
_ZN7Iex_3_010EremdevExcC1ERKNSt3__112basic_stringIcNS1_11char_traitsIcEENS1_9allocatorIcEEEE
_ZN7Iex_3_010EremdevExcC1ERKS0_
_ZN7Iex_3_010EremdevExcC1ERNSt3__118basic_stringstreamIcNS1_11char_traitsIcEENS1_9allocatorIcEEEE
_ZN7Iex_3_010EremdevExcC1Ev
_ZN7Iex_3_010EremdevExcC2EONSt3__112basic_stringIcNS1_11char_traitsIcEENS1_9allocatorIcEEEE
_ZN7Iex_3_010EremdevExcC2EOS0_
_ZN7Iex_3_010EremdevExcC2EPKc
_ZN7Iex_3_010EremdevExcC2ERKNSt3__112basic_stringIcNS1_11char_traitsIcEENS1_9allocatorIcEEEE
_ZN7Iex_3_010EremdevExcC2ERKS0_
_ZN7Iex_3_010EremdevExcC2ERNSt3__118basic_stringstreamIcNS1_11char_traitsIcEENS1_9allocatorIcEEEE
_ZN7Iex_3_010EremdevExcC2Ev
_ZN7Iex_3_010EremdevExcD0Ev
_ZN7Iex_3_010EremdevExcD1Ev
_ZN7Iex_3_010EremdevExcD2Ev
_ZN7Iex_3_010EremdevExcaSEOS0_
_ZN7Iex_3_010EremdevExcaSERS0_
_ZN7Iex_3_010EremoteExcC1EONSt3__112basic_stringIcNS1_11char_traitsIcEENS1_9allocatorIcEEEE
_ZN7Iex_3_010EremoteExcC1EOS0_
_ZN7Iex_3_010EremoteExcC1EPKc
_ZN7Iex_3_010EremoteExcC1ERKNSt3__112basic_stringIcNS1_11char_traitsIcEENS1_9allocatorIcEEEE
_ZN7Iex_3_010EremoteExcC1ERKS0_
_ZN7Iex_3_010EremoteExcC1ERNSt3__118basic_stringstreamIcNS1_11char_traitsIcEENS1_9allocatorIcEEEE
_ZN7Iex_3_010EremoteExcC1Ev
_ZN7Iex_3_010EremoteExcC2EONSt3__112basic_stringIcNS1_11char_traitsIcEENS1_9allocatorIcEEEE
_ZN7Iex_3_010EremoteExcC2EOS0_
_ZN7Iex_3_010EremoteExcC2EPKc
_ZN7Iex_3_010EremoteExcC2ERKNSt3__112basic_stringIcNS1_11char_traitsIcEENS1_9allocatorIcEEEE
_ZN7Iex_3_010EremoteExcC2ERKS0_
_ZN7Iex_3_010EremoteExcC2ERNSt3__118basic_stringstreamIcNS1_11char_traitsIcEENS1_9allocatorIcEEEE
_ZN7Iex_3_010EremoteExcC2Ev
_ZN7Iex_3_010EremoteExcD0Ev
_ZN7Iex_3_010EremoteExcD1Ev
_ZN7Iex_3_010EremoteExcD2Ev
_ZN7Iex_3_010EremoteExcaSEOS0_
_ZN7Iex_3_010EremoteExcaSERS0_
_ZN7Iex_3_010EtxtbsyExcC1EONSt3__112basic_stringIcNS1_11char_traitsIcEENS1_9allocatorIcEEEE
_ZN7Iex_3_010EtxtbsyExcC1EOS0_
_ZN7Iex_3_010EtxtbsyExcC1EPKc
_ZN7Iex_3_010EtxtbsyExcC1ERKNSt3__112basic_stringIcNS1_11char_traitsIcEENS1_9allocatorIcEEEE
_ZN7Iex_3_010EtxtbsyExcC1ERKS0_
_ZN7Iex_3_010EtxtbsyExcC1ERNSt3__118basic_stringstreamIcNS1_11char_traitsIcEENS1_9allocatorIcEEEE
_ZN7Iex_3_010EtxtbsyExcC1Ev
_ZN7Iex_3_010EtxtbsyExcC2EONSt3__112basic_stringIcNS1_11char_traitsIcEENS1_9allocatorIcEEEE
_ZN7Iex_3_010EtxtbsyExcC2EOS0_
_ZN7Iex_3_010EtxtbsyExcC2EPKc
_ZN7Iex_3_010EtxtbsyExcC2ERKNSt3__112basic_stringIcNS1_11char_traitsIcEENS1_9allocatorIcEEEE
_ZN7Iex_3_010EtxtbsyExcC2ERKS0_
_ZN7Iex_3_010EtxtbsyExcC2ERNSt3__118basic_stringstreamIcNS1_11char_traitsIcEENS1_9allocatorIcEEEE
_ZN7Iex_3_010EtxtbsyExcC2Ev
_ZN7Iex_3_010EtxtbsyExcD0Ev
_ZN7Iex_3_010EtxtbsyExcD1Ev
_ZN7Iex_3_010EtxtbsyExcD2Ev
_ZN7Iex_3_010EtxtbsyExcaSEOS0_
_ZN7Iex_3_010EtxtbsyExcaSERS0_
_ZN7Iex_3_010EucleanExcC1EONSt3__112basic_stringIcNS1_11char_traitsIcEENS1_9allocatorIcEEEE
_ZN7Iex_3_010EucleanExcC1EOS0_
_ZN7Iex_3_010EucleanExcC1EPKc
_ZN7Iex_3_010EucleanExcC1ERKNSt3__112basic_stringIcNS1_11char_traitsIcEENS1_9allocatorIcEEEE
_ZN7Iex_3_010EucleanExcC1ERKS0_
_ZN7Iex_3_010EucleanExcC1ERNSt3__118basic_stringstreamIcNS1_11char_traitsIcEENS1_9allocatorIcEEEE
_ZN7Iex_3_010EucleanExcC1Ev
_ZN7Iex_3_010EucleanExcC2EONSt3__112basic_stringIcNS1_11char_traitsIcEENS1_9allocatorIcEEEE
_ZN7Iex_3_010EucleanExcC2EOS0_
_ZN7Iex_3_010EucleanExcC2EPKc
_ZN7Iex_3_010EucleanExcC2ERKNSt3__112basic_stringIcNS1_11char_traitsIcEENS1_9allocatorIcEEEE
_ZN7Iex_3_010EucleanExcC2ERKS0_
_ZN7Iex_3_010EucleanExcC2ERNSt3__118basic_stringstreamIcNS1_11char_traitsIcEENS1_9allocatorIcEEEE
_ZN7Iex_3_010EucleanExcC2Ev
_ZN7Iex_3_010EucleanExcD0Ev
_ZN7Iex_3_010EucleanExcD1Ev
_ZN7Iex_3_010EucleanExcD2Ev
_ZN7Iex_3_010EucleanExcaSEOS0_
_ZN7Iex_3_010EucleanExcaSERS0_
_ZN7Iex_3_010EunatchExcC1EONSt3__112basic_stringIcNS1_11char_traitsIcEENS1_9allocatorIcEEEE
_ZN7Iex_3_010EunatchExcC1EOS0_
_ZN7Iex_3_010EunatchExcC1EPKc
_ZN7Iex_3_010EunatchExcC1ERKNSt3__112basic_stringIcNS1_11char_traitsIcEENS1_9allocatorIcEEEE
_ZN7Iex_3_010EunatchExcC1ERKS0_
_ZN7Iex_3_010EunatchExcC1ERNSt3__118basic_stringstreamIcNS1_11char_traitsIcEENS1_9allocatorIcEEEE
_ZN7Iex_3_010EunatchExcC1Ev
_ZN7Iex_3_010EunatchExcC2EONSt3__112basic_stringIcNS1_11char_traitsIcEENS1_9allocatorIcEEEE
_ZN7Iex_3_010EunatchExcC2EOS0_
_ZN7Iex_3_010EunatchExcC2EPKc
_ZN7Iex_3_010EunatchExcC2ERKNSt3__112basic_stringIcNS1_11char_traitsIcEENS1_9allocatorIcEEEE
_ZN7Iex_3_010EunatchExcC2ERKS0_
_ZN7Iex_3_010EunatchExcC2ERNSt3__118basic_stringstreamIcNS1_11char_traitsIcEENS1_9allocatorIcEEEE
_ZN7Iex_3_010EunatchExcC2Ev
_ZN7Iex_3_010EunatchExcD0Ev
_ZN7Iex_3_010EunatchExcD1Ev
_ZN7Iex_3_010EunatchExcD2Ev
_ZN7Iex_3_010EunatchExcaSEOS0_
_ZN7Iex_3_010EunatchExcaSERS0_
_ZN7Iex_3_010InexactExcC1EONSt3__112basic_stringIcNS1_11char_traitsIcEENS1_9allocatorIcEEEE
_ZN7Iex_3_010InexactExcC1EOS0_
_ZN7Iex_3_010InexactExcC1EPKc
_ZN7Iex_3_010InexactExcC1ERKNSt3__112basic_stringIcNS1_11char_traitsIcEENS1_9allocatorIcEEEE
_ZN7Iex_3_010InexactExcC1ERKS0_
_ZN7Iex_3_010InexactExcC1ERNSt3__118basic_stringstreamIcNS1_11char_traitsIcEENS1_9allocatorIcEEEE
_ZN7Iex_3_010InexactExcC1Ev
_ZN7Iex_3_010InexactExcC2EONSt3__112basic_stringIcNS1_11char_traitsIcEENS1_9allocatorIcEEEE
_ZN7Iex_3_010InexactExcC2EOS0_
_ZN7Iex_3_010InexactExcC2EPKc
_ZN7Iex_3_010InexactExcC2ERKNSt3__112basic_stringIcNS1_11char_traitsIcEENS1_9allocatorIcEEEE
_ZN7Iex_3_010InexactExcC2ERKS0_
_ZN7Iex_3_010InexactExcC2ERNSt3__118basic_stringstreamIcNS1_11char_traitsIcEENS1_9allocatorIcEEEE
_ZN7Iex_3_010InexactExcC2Ev
_ZN7Iex_3_010InexactExcD0Ev
_ZN7Iex_3_010InexactExcD1Ev
_ZN7Iex_3_010InexactExcD2Ev
_ZN7Iex_3_010InexactExcaSEOS0_
_ZN7Iex_3_010InexactExcaSERS0_
_ZN7Iex_3_011EalreadyExcC1EONSt3__112basic_stringIcNS1_11char_traitsIcEENS1_9allocatorIcEEEE
_ZN7Iex_3_011EalreadyExcC1EOS0_
_ZN7Iex_3_011EalreadyExcC1EPKc
_ZN7Iex_3_011EalreadyExcC1ERKNSt3__112basic_stringIcNS1_11char_traitsIcEENS1_9allocatorIcEEEE
_ZN7Iex_3_011EalreadyExcC1ERKS0_
_ZN7Iex_3_011EalreadyExcC1ERNSt3__118basic_stringstreamIcNS1_11char_traitsIcEENS1_9allocatorIcEEEE
_ZN7Iex_3_011EalreadyExcC1Ev
_ZN7Iex_3_011EalreadyExcC2EONSt3__112basic_stringIcNS1_11char_traitsIcEENS1_9allocatorIcEEEE
_ZN7Iex_3_011EalreadyExcC2EOS0_
_ZN7Iex_3_011EalreadyExcC2EPKc
_ZN7Iex_3_011EalreadyExcC2ERKNSt3__112basic_stringIcNS1_11char_traitsIcEENS1_9allocatorIcEEEE
_ZN7Iex_3_011EalreadyExcC2ERKS0_
_ZN7Iex_3_011EalreadyExcC2ERNSt3__118basic_stringstreamIcNS1_11char_traitsIcEENS1_9allocatorIcEEEE
_ZN7Iex_3_011EalreadyExcC2Ev
_ZN7Iex_3_011EalreadyExcD0Ev
_ZN7Iex_3_011EalreadyExcD1Ev
_ZN7Iex_3_011EalreadyExcD2Ev
_ZN7Iex_3_011EalreadyExcaSEOS0_
_ZN7Iex_3_011EalreadyExcaSERS0_
_ZN7Iex_3_011EbufsizeExcC1EONSt3__112basic_stringIcNS1_11char_traitsIcEENS1_9allocatorIcEEEE
_ZN7Iex_3_011EbufsizeExcC1EOS0_
_ZN7Iex_3_011EbufsizeExcC1EPKc
_ZN7Iex_3_011EbufsizeExcC1ERKNSt3__112basic_stringIcNS1_11char_traitsIcEENS1_9allocatorIcEEEE
_ZN7Iex_3_011EbufsizeExcC1ERKS0_
_ZN7Iex_3_011EbufsizeExcC1ERNSt3__118basic_stringstreamIcNS1_11char_traitsIcEENS1_9allocatorIcEEEE
_ZN7Iex_3_011EbufsizeExcC1Ev
_ZN7Iex_3_011EbufsizeExcC2EONSt3__112basic_stringIcNS1_11char_traitsIcEENS1_9allocatorIcEEEE
_ZN7Iex_3_011EbufsizeExcC2EOS0_
_ZN7Iex_3_011EbufsizeExcC2EPKc
_ZN7Iex_3_011EbufsizeExcC2ERKNSt3__112basic_stringIcNS1_11char_traitsIcEENS1_9allocatorIcEEEE
_ZN7Iex_3_011EbufsizeExcC2ERKS0_
_ZN7Iex_3_011EbufsizeExcC2ERNSt3__118basic_stringstreamIcNS1_11char_traitsIcEENS1_9allocatorIcEEEE
_ZN7Iex_3_011EbufsizeExcC2Ev
_ZN7Iex_3_011EbufsizeExcD0Ev
_ZN7Iex_3_011EbufsizeExcD1Ev
_ZN7Iex_3_011EbufsizeExcD2Ev
_ZN7Iex_3_011EbufsizeExcaSEOS0_
_ZN7Iex_3_011EbufsizeExcaSERS0_
_ZN7Iex_3_011EioresidExcC1EONSt3__112basic_stringIcNS1_11char_traitsIcEENS1_9allocatorIcEEEE
_ZN7Iex_3_011EioresidExcC1EOS0_
_ZN7Iex_3_011EioresidExcC1EPKc
_ZN7Iex_3_011EioresidExcC1ERKNSt3__112basic_stringIcNS1_11char_traitsIcEENS1_9allocatorIcEEEE
_ZN7Iex_3_011EioresidExcC1ERKS0_
_ZN7Iex_3_011EioresidExcC1ERNSt3__118basic_stringstreamIcNS1_11char_traitsIcEENS1_9allocatorIcEEEE
_ZN7Iex_3_011EioresidExcC1Ev
_ZN7Iex_3_011EioresidExcC2EONSt3__112basic_stringIcNS1_11char_traitsIcEENS1_9allocatorIcEEEE
_ZN7Iex_3_011EioresidExcC2EOS0_
_ZN7Iex_3_011EioresidExcC2EPKc
_ZN7Iex_3_011EioresidExcC2ERKNSt3__112basic_stringIcNS1_11char_traitsIcEENS1_9allocatorIcEEEE
_ZN7Iex_3_011EioresidExcC2ERKS0_
_ZN7Iex_3_011EioresidExcC2ERNSt3__118basic_stringstreamIcNS1_11char_traitsIcEENS1_9allocatorIcEEEE
_ZN7Iex_3_011EioresidExcC2Ev
_ZN7Iex_3_011EioresidExcD0Ev
_ZN7Iex_3_011EioresidExcD1Ev
_ZN7Iex_3_011EioresidExcD2Ev
_ZN7Iex_3_011EioresidExcaSEOS0_
_ZN7Iex_3_011EioresidExcaSERS0_
_ZN7Iex_3_011El2nsyncExcC1EONSt3__112basic_stringIcNS1_11char_traitsIcEENS1_9allocatorIcEEEE
_ZN7Iex_3_011El2nsyncExcC1EOS0_
_ZN7Iex_3_011El2nsyncExcC1EPKc
_ZN7Iex_3_011El2nsyncExcC1ERKNSt3__112basic_stringIcNS1_11char_traitsIcEENS1_9allocatorIcEEEE
_ZN7Iex_3_011El2nsyncExcC1ERKS0_
_ZN7Iex_3_011El2nsyncExcC1ERNSt3__118basic_stringstreamIcNS1_11char_traitsIcEENS1_9allocatorIcEEEE
_ZN7Iex_3_011El2nsyncExcC1Ev
_ZN7Iex_3_011El2nsyncExcC2EONSt3__112basic_stringIcNS1_11char_traitsIcEENS1_9allocatorIcEEEE
_ZN7Iex_3_011El2nsyncExcC2EOS0_
_ZN7Iex_3_011El2nsyncExcC2EPKc
_ZN7Iex_3_011El2nsyncExcC2ERKNSt3__112basic_stringIcNS1_11char_traitsIcEENS1_9allocatorIcEEEE
_ZN7Iex_3_011El2nsyncExcC2ERKS0_
_ZN7Iex_3_011El2nsyncExcC2ERNSt3__118basic_stringstreamIcNS1_11char_traitsIcEENS1_9allocatorIcEEEE
_ZN7Iex_3_011El2nsyncExcC2Ev
_ZN7Iex_3_011El2nsyncExcD0Ev
_ZN7Iex_3_011El2nsyncExcD1Ev
_ZN7Iex_3_011El2nsyncExcD2Ev
_ZN7Iex_3_011El2nsyncExcaSEOS0_
_ZN7Iex_3_011El2nsyncExcaSERS0_
_ZN7Iex_3_011ElibexecExcC1EONSt3__112basic_stringIcNS1_11char_traitsIcEENS1_9allocatorIcEEEE
_ZN7Iex_3_011ElibexecExcC1EOS0_
_ZN7Iex_3_011ElibexecExcC1EPKc
_ZN7Iex_3_011ElibexecExcC1ERKNSt3__112basic_stringIcNS1_11char_traitsIcEENS1_9allocatorIcEEEE
_ZN7Iex_3_011ElibexecExcC1ERKS0_
_ZN7Iex_3_011ElibexecExcC1ERNSt3__118basic_stringstreamIcNS1_11char_traitsIcEENS1_9allocatorIcEEEE
_ZN7Iex_3_011ElibexecExcC1Ev
_ZN7Iex_3_011ElibexecExcC2EONSt3__112basic_stringIcNS1_11char_traitsIcEENS1_9allocatorIcEEEE
_ZN7Iex_3_011ElibexecExcC2EOS0_
_ZN7Iex_3_011ElibexecExcC2EPKc
_ZN7Iex_3_011ElibexecExcC2ERKNSt3__112basic_stringIcNS1_11char_traitsIcEENS1_9allocatorIcEEEE
_ZN7Iex_3_011ElibexecExcC2ERKS0_
_ZN7Iex_3_011ElibexecExcC2ERNSt3__118basic_stringstreamIcNS1_11char_traitsIcEENS1_9allocatorIcEEEE
_ZN7Iex_3_011ElibexecExcC2Ev
_ZN7Iex_3_011ElibexecExcD0Ev
_ZN7Iex_3_011ElibexecExcD1Ev
_ZN7Iex_3_011ElibexecExcD2Ev
_ZN7Iex_3_011ElibexecExcaSEOS0_
_ZN7Iex_3_011ElibexecExcaSERS0_
_ZN7Iex_3_011EmsgsizeExcC1EONSt3__112basic_stringIcNS1_11char_traitsIcEENS1_9allocatorIcEEEE
_ZN7Iex_3_011EmsgsizeExcC1EOS0_
_ZN7Iex_3_011EmsgsizeExcC1EPKc
_ZN7Iex_3_011EmsgsizeExcC1ERKNSt3__112basic_stringIcNS1_11char_traitsIcEENS1_9allocatorIcEEEE
_ZN7Iex_3_011EmsgsizeExcC1ERKS0_
_ZN7Iex_3_011EmsgsizeExcC1ERNSt3__118basic_stringstreamIcNS1_11char_traitsIcEENS1_9allocatorIcEEEE
_ZN7Iex_3_011EmsgsizeExcC1Ev
_ZN7Iex_3_011EmsgsizeExcC2EONSt3__112basic_stringIcNS1_11char_traitsIcEENS1_9allocatorIcEEEE
_ZN7Iex_3_011EmsgsizeExcC2EOS0_
_ZN7Iex_3_011EmsgsizeExcC2EPKc
_ZN7Iex_3_011EmsgsizeExcC2ERKNSt3__112basic_stringIcNS1_11char_traitsIcEENS1_9allocatorIcEEEE
_ZN7Iex_3_011EmsgsizeExcC2ERKS0_
_ZN7Iex_3_011EmsgsizeExcC2ERNSt3__118basic_stringstreamIcNS1_11char_traitsIcEENS1_9allocatorIcEEEE
_ZN7Iex_3_011EmsgsizeExcC2Ev
_ZN7Iex_3_011EmsgsizeExcD0Ev
_ZN7Iex_3_011EmsgsizeExcD1Ev
_ZN7Iex_3_011EmsgsizeExcD2Ev
_ZN7Iex_3_011EmsgsizeExcaSEOS0_
_ZN7Iex_3_011EmsgsizeExcaSERS0_
_ZN7Iex_3_011EmustrunExcC1EONSt3__112basic_stringIcNS1_11char_traitsIcEENS1_9allocatorIcEEEE
_ZN7Iex_3_011EmustrunExcC1EOS0_
_ZN7Iex_3_011EmustrunExcC1EPKc
_ZN7Iex_3_011EmustrunExcC1ERKNSt3__112basic_stringIcNS1_11char_traitsIcEENS1_9allocatorIcEEEE
_ZN7Iex_3_011EmustrunExcC1ERKS0_
_ZN7Iex_3_011EmustrunExcC1ERNSt3__118basic_stringstreamIcNS1_11char_traitsIcEENS1_9allocatorIcEEEE
_ZN7Iex_3_011EmustrunExcC1Ev
_ZN7Iex_3_011EmustrunExcC2EONSt3__112basic_stringIcNS1_11char_traitsIcEENS1_9allocatorIcEEEE
_ZN7Iex_3_011EmustrunExcC2EOS0_
_ZN7Iex_3_011EmustrunExcC2EPKc
_ZN7Iex_3_011EmustrunExcC2ERKNSt3__112basic_stringIcNS1_11char_traitsIcEENS1_9allocatorIcEEEE
_ZN7Iex_3_011EmustrunExcC2ERKS0_
_ZN7Iex_3_011EmustrunExcC2ERNSt3__118basic_stringstreamIcNS1_11char_traitsIcEENS1_9allocatorIcEEEE
_ZN7Iex_3_011EmustrunExcC2Ev
_ZN7Iex_3_011EmustrunExcD0Ev
_ZN7Iex_3_011EmustrunExcD1Ev
_ZN7Iex_3_011EmustrunExcD2Ev
_ZN7Iex_3_011EmustrunExcaSEOS0_
_ZN7Iex_3_011EmustrunExcaSERS0_
_ZN7Iex_3_011EnetdownExcC1EONSt3__112basic_stringIcNS1_11char_traitsIcEENS1_9allocatorIcEEEE
_ZN7Iex_3_011EnetdownExcC1EOS0_
_ZN7Iex_3_011EnetdownExcC1EPKc
_ZN7Iex_3_011EnetdownExcC1ERKNSt3__112basic_stringIcNS1_11char_traitsIcEENS1_9allocatorIcEEEE
_ZN7Iex_3_011EnetdownExcC1ERKS0_
_ZN7Iex_3_011EnetdownExcC1ERNSt3__118basic_stringstreamIcNS1_11char_traitsIcEENS1_9allocatorIcEEEE
_ZN7Iex_3_011EnetdownExcC1Ev
_ZN7Iex_3_011EnetdownExcC2EONSt3__112basic_stringIcNS1_11char_traitsIcEENS1_9allocatorIcEEEE
_ZN7Iex_3_011EnetdownExcC2EOS0_
_ZN7Iex_3_011EnetdownExcC2EPKc
_ZN7Iex_3_011EnetdownExcC2ERKNSt3__112basic_stringIcNS1_11char_traitsIcEENS1_9allocatorIcEEEE
_ZN7Iex_3_011EnetdownExcC2ERKS0_
_ZN7Iex_3_011EnetdownExcC2ERNSt3__118basic_stringstreamIcNS1_11char_traitsIcEENS1_9allocatorIcEEEE
_ZN7Iex_3_011EnetdownExcC2Ev
_ZN7Iex_3_011EnetdownExcD0Ev
_ZN7Iex_3_011EnetdownExcD1Ev
_ZN7Iex_3_011EnetdownExcD2Ev
_ZN7Iex_3_011EnetdownExcaSEOS0_
_ZN7Iex_3_011EnetdownExcaSERS0_
_ZN7Iex_3_011EnoexistExcC1EONSt3__112basic_stringIcNS1_11char_traitsIcEENS1_9allocatorIcEEEE
_ZN7Iex_3_011EnoexistExcC1EOS0_
_ZN7Iex_3_011EnoexistExcC1EPKc
_ZN7Iex_3_011EnoexistExcC1ERKNSt3__112basic_stringIcNS1_11char_traitsIcEENS1_9allocatorIcEEEE
_ZN7Iex_3_011EnoexistExcC1ERKS0_
_ZN7Iex_3_011EnoexistExcC1ERNSt3__118basic_stringstreamIcNS1_11char_traitsIcEENS1_9allocatorIcEEEE
_ZN7Iex_3_011EnoexistExcC1Ev
_ZN7Iex_3_011EnoexistExcC2EONSt3__112basic_stringIcNS1_11char_traitsIcEENS1_9allocatorIcEEEE
_ZN7Iex_3_011EnoexistExcC2EOS0_
_ZN7Iex_3_011EnoexistExcC2EPKc
_ZN7Iex_3_011EnoexistExcC2ERKNSt3__112basic_stringIcNS1_11char_traitsIcEENS1_9allocatorIcEEEE
_ZN7Iex_3_011EnoexistExcC2ERKS0_
_ZN7Iex_3_011EnoexistExcC2ERNSt3__118basic_stringstreamIcNS1_11char_traitsIcEENS1_9allocatorIcEEEE
_ZN7Iex_3_011EnoexistExcC2Ev
_ZN7Iex_3_011EnoexistExcD0Ev
_ZN7Iex_3_011EnoexistExcD1Ev
_ZN7Iex_3_011EnoexistExcD2Ev
_ZN7Iex_3_011EnoexistExcaSEOS0_
_ZN7Iex_3_011EnoexistExcaSERS0_
_ZN7Iex_3_011EnologinExcC1EONSt3__112basic_stringIcNS1_11char_traitsIcEENS1_9allocatorIcEEEE
_ZN7Iex_3_011EnologinExcC1EOS0_
_ZN7Iex_3_011EnologinExcC1EPKc
_ZN7Iex_3_011EnologinExcC1ERKNSt3__112basic_stringIcNS1_11char_traitsIcEENS1_9allocatorIcEEEE
_ZN7Iex_3_011EnologinExcC1ERKS0_
_ZN7Iex_3_011EnologinExcC1ERNSt3__118basic_stringstreamIcNS1_11char_traitsIcEENS1_9allocatorIcEEEE
_ZN7Iex_3_011EnologinExcC1Ev
_ZN7Iex_3_011EnologinExcC2EONSt3__112basic_stringIcNS1_11char_traitsIcEENS1_9allocatorIcEEEE
_ZN7Iex_3_011EnologinExcC2EOS0_
_ZN7Iex_3_011EnologinExcC2EPKc
_ZN7Iex_3_011EnologinExcC2ERKNSt3__112basic_stringIcNS1_11char_traitsIcEENS1_9allocatorIcEEEE
_ZN7Iex_3_011EnologinExcC2ERKS0_
_ZN7Iex_3_011EnologinExcC2ERNSt3__118basic_stringstreamIcNS1_11char_traitsIcEENS1_9allocatorIcEEEE
_ZN7Iex_3_011EnologinExcC2Ev
_ZN7Iex_3_011EnologinExcD0Ev
_ZN7Iex_3_011EnologinExcD1Ev
_ZN7Iex_3_011EnologinExcD2Ev
_ZN7Iex_3_011EnologinExcaSEOS0_
_ZN7Iex_3_011EnologinExcaSERS0_
_ZN7Iex_3_011EnotconnExcC1EONSt3__112basic_stringIcNS1_11char_traitsIcEENS1_9allocatorIcEEEE
_ZN7Iex_3_011EnotconnExcC1EOS0_
_ZN7Iex_3_011EnotconnExcC1EPKc
_ZN7Iex_3_011EnotconnExcC1ERKNSt3__112basic_stringIcNS1_11char_traitsIcEENS1_9allocatorIcEEEE
_ZN7Iex_3_011EnotconnExcC1ERKS0_
_ZN7Iex_3_011EnotconnExcC1ERNSt3__118basic_stringstreamIcNS1_11char_traitsIcEENS1_9allocatorIcEEEE
_ZN7Iex_3_011EnotconnExcC1Ev
_ZN7Iex_3_011EnotconnExcC2EONSt3__112basic_stringIcNS1_11char_traitsIcEENS1_9allocatorIcEEEE
_ZN7Iex_3_011EnotconnExcC2EOS0_
_ZN7Iex_3_011EnotconnExcC2EPKc
_ZN7Iex_3_011EnotconnExcC2ERKNSt3__112basic_stringIcNS1_11char_traitsIcEENS1_9allocatorIcEEEE
_ZN7Iex_3_011EnotconnExcC2ERKS0_
_ZN7Iex_3_011EnotconnExcC2ERNSt3__118basic_stringstreamIcNS1_11char_traitsIcEENS1_9allocatorIcEEEE
_ZN7Iex_3_011EnotconnExcC2Ev
_ZN7Iex_3_011EnotconnExcD0Ev
_ZN7Iex_3_011EnotconnExcD1Ev
_ZN7Iex_3_011EnotconnExcD2Ev
_ZN7Iex_3_011EnotconnExcaSEOS0_
_ZN7Iex_3_011EnotconnExcaSERS0_
_ZN7Iex_3_011EnotsockExcC1EONSt3__112basic_stringIcNS1_11char_traitsIcEENS1_9allocatorIcEEEE
_ZN7Iex_3_011EnotsockExcC1EOS0_
_ZN7Iex_3_011EnotsockExcC1EPKc
_ZN7Iex_3_011EnotsockExcC1ERKNSt3__112basic_stringIcNS1_11char_traitsIcEENS1_9allocatorIcEEEE
_ZN7Iex_3_011EnotsockExcC1ERKS0_
_ZN7Iex_3_011EnotsockExcC1ERNSt3__118basic_stringstreamIcNS1_11char_traitsIcEENS1_9allocatorIcEEEE
_ZN7Iex_3_011EnotsockExcC1Ev
_ZN7Iex_3_011EnotsockExcC2EONSt3__112basic_stringIcNS1_11char_traitsIcEENS1_9allocatorIcEEEE
_ZN7Iex_3_011EnotsockExcC2EOS0_
_ZN7Iex_3_011EnotsockExcC2EPKc
_ZN7Iex_3_011EnotsockExcC2ERKNSt3__112basic_stringIcNS1_11char_traitsIcEENS1_9allocatorIcEEEE
_ZN7Iex_3_011EnotsockExcC2ERKS0_
_ZN7Iex_3_011EnotsockExcC2ERNSt3__118basic_stringstreamIcNS1_11char_traitsIcEENS1_9allocatorIcEEEE
_ZN7Iex_3_011EnotsockExcC2Ev
_ZN7Iex_3_011EnotsockExcD0Ev
_ZN7Iex_3_011EnotsockExcD1Ev
_ZN7Iex_3_011EnotsockExcD2Ev
_ZN7Iex_3_011EnotsockExcaSEOS0_
_ZN7Iex_3_011EnotsockExcaSERS0_
_ZN7Iex_3_011EnotuniqExcC1EONSt3__112basic_stringIcNS1_11char_traitsIcEENS1_9allocatorIcEEEE
_ZN7Iex_3_011EnotuniqExcC1EOS0_
_ZN7Iex_3_011EnotuniqExcC1EPKc
_ZN7Iex_3_011EnotuniqExcC1ERKNSt3__112basic_stringIcNS1_11char_traitsIcEENS1_9allocatorIcEEEE
_ZN7Iex_3_011EnotuniqExcC1ERKS0_
_ZN7Iex_3_011EnotuniqExcC1ERNSt3__118basic_stringstreamIcNS1_11char_traitsIcEENS1_9allocatorIcEEEE
_ZN7Iex_3_011EnotuniqExcC1Ev
_ZN7Iex_3_011EnotuniqExcC2EONSt3__112basic_stringIcNS1_11char_traitsIcEENS1_9allocatorIcEEEE
_ZN7Iex_3_011EnotuniqExcC2EOS0_
_ZN7Iex_3_011EnotuniqExcC2EPKc
_ZN7Iex_3_011EnotuniqExcC2ERKNSt3__112basic_stringIcNS1_11char_traitsIcEENS1_9allocatorIcEEEE
_ZN7Iex_3_011EnotuniqExcC2ERKS0_
_ZN7Iex_3_011EnotuniqExcC2ERNSt3__118basic_stringstreamIcNS1_11char_traitsIcEENS1_9allocatorIcEEEE
_ZN7Iex_3_011EnotuniqExcC2Ev
_ZN7Iex_3_011EnotuniqExcD0Ev
_ZN7Iex_3_011EnotuniqExcD1Ev
_ZN7Iex_3_011EnotuniqExcD2Ev
_ZN7Iex_3_011EnotuniqExcaSEOS0_
_ZN7Iex_3_011EnotuniqExcaSERS0_
_ZN7Iex_3_011EproclimExcC1EONSt3__112basic_stringIcNS1_11char_traitsIcEENS1_9allocatorIcEEEE
_ZN7Iex_3_011EproclimExcC1EOS0_
_ZN7Iex_3_011EproclimExcC1EPKc
_ZN7Iex_3_011EproclimExcC1ERKNSt3__112basic_stringIcNS1_11char_traitsIcEENS1_9allocatorIcEEEE
_ZN7Iex_3_011EproclimExcC1ERKS0_
_ZN7Iex_3_011EproclimExcC1ERNSt3__118basic_stringstreamIcNS1_11char_traitsIcEENS1_9allocatorIcEEEE
_ZN7Iex_3_011EproclimExcC1Ev
_ZN7Iex_3_011EproclimExcC2EONSt3__112basic_stringIcNS1_11char_traitsIcEENS1_9allocatorIcEEEE
_ZN7Iex_3_011EproclimExcC2EOS0_
_ZN7Iex_3_011EproclimExcC2EPKc
_ZN7Iex_3_011EproclimExcC2ERKNSt3__112basic_stringIcNS1_11char_traitsIcEENS1_9allocatorIcEEEE
_ZN7Iex_3_011EproclimExcC2ERKS0_
_ZN7Iex_3_011EproclimExcC2ERNSt3__118basic_stringstreamIcNS1_11char_traitsIcEENS1_9allocatorIcEEEE
_ZN7Iex_3_011EproclimExcC2Ev
_ZN7Iex_3_011EproclimExcD0Ev
_ZN7Iex_3_011EproclimExcD1Ev
_ZN7Iex_3_011EproclimExcD2Ev
_ZN7Iex_3_011EproclimExcaSEOS0_
_ZN7Iex_3_011EproclimExcaSERS0_
_ZN7Iex_3_011ErestartExcC1EONSt3__112basic_stringIcNS1_11char_traitsIcEENS1_9allocatorIcEEEE
_ZN7Iex_3_011ErestartExcC1EOS0_
_ZN7Iex_3_011ErestartExcC1EPKc
_ZN7Iex_3_011ErestartExcC1ERKNSt3__112basic_stringIcNS1_11char_traitsIcEENS1_9allocatorIcEEEE
_ZN7Iex_3_011ErestartExcC1ERKS0_
_ZN7Iex_3_011ErestartExcC1ERNSt3__118basic_stringstreamIcNS1_11char_traitsIcEENS1_9allocatorIcEEEE
_ZN7Iex_3_011ErestartExcC1Ev
_ZN7Iex_3_011ErestartExcC2EONSt3__112basic_stringIcNS1_11char_traitsIcEENS1_9allocatorIcEEEE
_ZN7Iex_3_011ErestartExcC2EOS0_
_ZN7Iex_3_011ErestartExcC2EPKc
_ZN7Iex_3_011ErestartExcC2ERKNSt3__112basic_stringIcNS1_11char_traitsIcEENS1_9allocatorIcEEEE
_ZN7Iex_3_011ErestartExcC2ERKS0_
_ZN7Iex_3_011ErestartExcC2ERNSt3__118basic_stringstreamIcNS1_11char_traitsIcEENS1_9allocatorIcEEEE
_ZN7Iex_3_011ErestartExcC2Ev
_ZN7Iex_3_011ErestartExcD0Ev
_ZN7Iex_3_011ErestartExcD1Ev
_ZN7Iex_3_011ErestartExcD2Ev
_ZN7Iex_3_011ErestartExcaSEOS0_
_ZN7Iex_3_011ErestartExcaSERS0_
_ZN7Iex_3_011EstrpipeExcC1EONSt3__112basic_stringIcNS1_11char_traitsIcEENS1_9allocatorIcEEEE
_ZN7Iex_3_011EstrpipeExcC1EOS0_
_ZN7Iex_3_011EstrpipeExcC1EPKc
_ZN7Iex_3_011EstrpipeExcC1ERKNSt3__112basic_stringIcNS1_11char_traitsIcEENS1_9allocatorIcEEEE
_ZN7Iex_3_011EstrpipeExcC1ERKS0_
_ZN7Iex_3_011EstrpipeExcC1ERNSt3__118basic_stringstreamIcNS1_11char_traitsIcEENS1_9allocatorIcEEEE
_ZN7Iex_3_011EstrpipeExcC1Ev
_ZN7Iex_3_011EstrpipeExcC2EONSt3__112basic_stringIcNS1_11char_traitsIcEENS1_9allocatorIcEEEE
_ZN7Iex_3_011EstrpipeExcC2EOS0_
_ZN7Iex_3_011EstrpipeExcC2EPKc
_ZN7Iex_3_011EstrpipeExcC2ERKNSt3__112basic_stringIcNS1_11char_traitsIcEENS1_9allocatorIcEEEE
_ZN7Iex_3_011EstrpipeExcC2ERKS0_
_ZN7Iex_3_011EstrpipeExcC2ERNSt3__118basic_stringstreamIcNS1_11char_traitsIcEENS1_9allocatorIcEEEE
_ZN7Iex_3_011EstrpipeExcC2Ev
_ZN7Iex_3_011EstrpipeExcD0Ev
_ZN7Iex_3_011EstrpipeExcD1Ev
_ZN7Iex_3_011EstrpipeExcD2Ev
_ZN7Iex_3_011EstrpipeExcaSEOS0_
_ZN7Iex_3_011EstrpipeExcaSERS0_
_ZN7Iex_3_011OverflowExcC1EONSt3__112basic_stringIcNS1_11char_traitsIcEENS1_9allocatorIcEEEE
_ZN7Iex_3_011OverflowExcC1EOS0_
_ZN7Iex_3_011OverflowExcC1EPKc
_ZN7Iex_3_011OverflowExcC1ERKNSt3__112basic_stringIcNS1_11char_traitsIcEENS1_9allocatorIcEEEE
_ZN7Iex_3_011OverflowExcC1ERKS0_
_ZN7Iex_3_011OverflowExcC1ERNSt3__118basic_stringstreamIcNS1_11char_traitsIcEENS1_9allocatorIcEEEE
_ZN7Iex_3_011OverflowExcC1Ev
_ZN7Iex_3_011OverflowExcC2EONSt3__112basic_stringIcNS1_11char_traitsIcEENS1_9allocatorIcEEEE
_ZN7Iex_3_011OverflowExcC2EOS0_
_ZN7Iex_3_011OverflowExcC2EPKc
_ZN7Iex_3_011OverflowExcC2ERKNSt3__112basic_stringIcNS1_11char_traitsIcEENS1_9allocatorIcEEEE
_ZN7Iex_3_011OverflowExcC2ERKS0_
_ZN7Iex_3_011OverflowExcC2ERNSt3__118basic_stringstreamIcNS1_11char_traitsIcEENS1_9allocatorIcEEEE
_ZN7Iex_3_011OverflowExcC2Ev
_ZN7Iex_3_011OverflowExcD0Ev
_ZN7Iex_3_011OverflowExcD1Ev
_ZN7Iex_3_011OverflowExcD2Ev
_ZN7Iex_3_011OverflowExcaSEOS0_
_ZN7Iex_3_011OverflowExcaSERS0_
_ZN7Iex_3_011stackTracerEv
_ZN7Iex_3_012EcanceledExcC1EONSt3__112basic_stringIcNS1_11char_traitsIcEENS1_9allocatorIcEEEE
_ZN7Iex_3_012EcanceledExcC1EOS0_
_ZN7Iex_3_012EcanceledExcC1EPKc
_ZN7Iex_3_012EcanceledExcC1ERKNSt3__112basic_stringIcNS1_11char_traitsIcEENS1_9allocatorIcEEEE
_ZN7Iex_3_012EcanceledExcC1ERKS0_
_ZN7Iex_3_012EcanceledExcC1ERNSt3__118basic_stringstreamIcNS1_11char_traitsIcEENS1_9allocatorIcEEEE
_ZN7Iex_3_012EcanceledExcC1Ev
_ZN7Iex_3_012EcanceledExcC2EONSt3__112basic_stringIcNS1_11char_traitsIcEENS1_9allocatorIcEEEE
_ZN7Iex_3_012EcanceledExcC2EOS0_
_ZN7Iex_3_012EcanceledExcC2EPKc
_ZN7Iex_3_012EcanceledExcC2ERKNSt3__112basic_stringIcNS1_11char_traitsIcEENS1_9allocatorIcEEEE
_ZN7Iex_3_012EcanceledExcC2ERKS0_
_ZN7Iex_3_012EcanceledExcC2ERNSt3__118basic_stringstreamIcNS1_11char_traitsIcEENS1_9allocatorIcEEEE
_ZN7Iex_3_012EcanceledExcC2Ev
_ZN7Iex_3_012EcanceledExcD0Ev
_ZN7Iex_3_012EcanceledExcD1Ev
_ZN7Iex_3_012EcanceledExcD2Ev
_ZN7Iex_3_012EcanceledExcaSEOS0_
_ZN7Iex_3_012EcanceledExcaSERS0_
_ZN7Iex_3_012EclockcpuExcC1EONSt3__112basic_stringIcNS1_11char_traitsIcEENS1_9allocatorIcEEEE
_ZN7Iex_3_012EclockcpuExcC1EOS0_
_ZN7Iex_3_012EclockcpuExcC1EPKc
_ZN7Iex_3_012EclockcpuExcC1ERKNSt3__112basic_stringIcNS1_11char_traitsIcEENS1_9allocatorIcEEEE
_ZN7Iex_3_012EclockcpuExcC1ERKS0_
_ZN7Iex_3_012EclockcpuExcC1ERNSt3__118basic_stringstreamIcNS1_11char_traitsIcEENS1_9allocatorIcEEEE
_ZN7Iex_3_012EclockcpuExcC1Ev
_ZN7Iex_3_012EclockcpuExcC2EONSt3__112basic_stringIcNS1_11char_traitsIcEENS1_9allocatorIcEEEE
_ZN7Iex_3_012EclockcpuExcC2EOS0_
_ZN7Iex_3_012EclockcpuExcC2EPKc
_ZN7Iex_3_012EclockcpuExcC2ERKNSt3__112basic_stringIcNS1_11char_traitsIcEENS1_9allocatorIcEEEE
_ZN7Iex_3_012EclockcpuExcC2ERKS0_
_ZN7Iex_3_012EclockcpuExcC2ERNSt3__118basic_stringstreamIcNS1_11char_traitsIcEENS1_9allocatorIcEEEE
_ZN7Iex_3_012EclockcpuExcC2Ev
_ZN7Iex_3_012EclockcpuExcD0Ev
_ZN7Iex_3_012EclockcpuExcD1Ev
_ZN7Iex_3_012EclockcpuExcD2Ev
_ZN7Iex_3_012EclockcpuExcaSEOS0_
_ZN7Iex_3_012EclockcpuExcaSERS0_
_ZN7Iex_3_012EdeadlockExcC1EONSt3__112basic_stringIcNS1_11char_traitsIcEENS1_9allocatorIcEEEE
_ZN7Iex_3_012EdeadlockExcC1EOS0_
_ZN7Iex_3_012EdeadlockExcC1EPKc
_ZN7Iex_3_012EdeadlockExcC1ERKNSt3__112basic_stringIcNS1_11char_traitsIcEENS1_9allocatorIcEEEE
_ZN7Iex_3_012EdeadlockExcC1ERKS0_
_ZN7Iex_3_012EdeadlockExcC1ERNSt3__118basic_stringstreamIcNS1_11char_traitsIcEENS1_9allocatorIcEEEE
_ZN7Iex_3_012EdeadlockExcC1Ev
_ZN7Iex_3_012EdeadlockExcC2EONSt3__112basic_stringIcNS1_11char_traitsIcEENS1_9allocatorIcEEEE
_ZN7Iex_3_012EdeadlockExcC2EOS0_
_ZN7Iex_3_012EdeadlockExcC2EPKc
_ZN7Iex_3_012EdeadlockExcC2ERKNSt3__112basic_stringIcNS1_11char_traitsIcEENS1_9allocatorIcEEEE
_ZN7Iex_3_012EdeadlockExcC2ERKS0_
_ZN7Iex_3_012EdeadlockExcC2ERNSt3__118basic_stringstreamIcNS1_11char_traitsIcEENS1_9allocatorIcEEEE
_ZN7Iex_3_012EdeadlockExcC2Ev
_ZN7Iex_3_012EdeadlockExcD0Ev
_ZN7Iex_3_012EdeadlockExcD1Ev
_ZN7Iex_3_012EdeadlockExcD2Ev
_ZN7Iex_3_012EdeadlockExcaSEOS0_
_ZN7Iex_3_012EdeadlockExcaSERS0_
_ZN7Iex_3_012EdisjointExcC1EONSt3__112basic_stringIcNS1_11char_traitsIcEENS1_9allocatorIcEEEE
_ZN7Iex_3_012EdisjointExcC1EOS0_
_ZN7Iex_3_012EdisjointExcC1EPKc
_ZN7Iex_3_012EdisjointExcC1ERKNSt3__112basic_stringIcNS1_11char_traitsIcEENS1_9allocatorIcEEEE
_ZN7Iex_3_012EdisjointExcC1ERKS0_
_ZN7Iex_3_012EdisjointExcC1ERNSt3__118basic_stringstreamIcNS1_11char_traitsIcEENS1_9allocatorIcEEEE
_ZN7Iex_3_012EdisjointExcC1Ev
_ZN7Iex_3_012EdisjointExcC2EONSt3__112basic_stringIcNS1_11char_traitsIcEENS1_9allocatorIcEEEE
_ZN7Iex_3_012EdisjointExcC2EOS0_
_ZN7Iex_3_012EdisjointExcC2EPKc
_ZN7Iex_3_012EdisjointExcC2ERKNSt3__112basic_stringIcNS1_11char_traitsIcEENS1_9allocatorIcEEEE
_ZN7Iex_3_012EdisjointExcC2ERKS0_
_ZN7Iex_3_012EdisjointExcC2ERNSt3__118basic_stringstreamIcNS1_11char_traitsIcEENS1_9allocatorIcEEEE
_ZN7Iex_3_012EdisjointExcC2Ev
_ZN7Iex_3_012EdisjointExcD0Ev
_ZN7Iex_3_012EdisjointExcD1Ev
_ZN7Iex_3_012EdisjointExcD2Ev
_ZN7Iex_3_012EdisjointExcaSEOS0_
_ZN7Iex_3_012EdisjointExcaSERS0_
_ZN7Iex_3_012EenqueuedExcC1EONSt3__112basic_stringIcNS1_11char_traitsIcEENS1_9allocatorIcEEEE
_ZN7Iex_3_012EenqueuedExcC1EOS0_
_ZN7Iex_3_012EenqueuedExcC1EPKc
_ZN7Iex_3_012EenqueuedExcC1ERKNSt3__112basic_stringIcNS1_11char_traitsIcEENS1_9allocatorIcEEEE
_ZN7Iex_3_012EenqueuedExcC1ERKS0_
_ZN7Iex_3_012EenqueuedExcC1ERNSt3__118basic_stringstreamIcNS1_11char_traitsIcEENS1_9allocatorIcEEEE
_ZN7Iex_3_012EenqueuedExcC1Ev
_ZN7Iex_3_012EenqueuedExcC2EONSt3__112basic_stringIcNS1_11char_traitsIcEENS1_9allocatorIcEEEE
_ZN7Iex_3_012EenqueuedExcC2EOS0_
_ZN7Iex_3_012EenqueuedExcC2EPKc
_ZN7Iex_3_012EenqueuedExcC2ERKNSt3__112basic_stringIcNS1_11char_traitsIcEENS1_9allocatorIcEEEE
_ZN7Iex_3_012EenqueuedExcC2ERKS0_
_ZN7Iex_3_012EenqueuedExcC2ERNSt3__118basic_stringstreamIcNS1_11char_traitsIcEENS1_9allocatorIcEEEE
_ZN7Iex_3_012EenqueuedExcC2Ev
_ZN7Iex_3_012EenqueuedExcD0Ev
_ZN7Iex_3_012EenqueuedExcD1Ev
_ZN7Iex_3_012EenqueuedExcD2Ev
_ZN7Iex_3_012EenqueuedExcaSEOS0_
_ZN7Iex_3_012EenqueuedExcaSERS0_
_ZN7Iex_3_012EhostdownExcC1EONSt3__112basic_stringIcNS1_11char_traitsIcEENS1_9allocatorIcEEEE
_ZN7Iex_3_012EhostdownExcC1EOS0_
_ZN7Iex_3_012EhostdownExcC1EPKc
_ZN7Iex_3_012EhostdownExcC1ERKNSt3__112basic_stringIcNS1_11char_traitsIcEENS1_9allocatorIcEEEE
_ZN7Iex_3_012EhostdownExcC1ERKS0_
_ZN7Iex_3_012EhostdownExcC1ERNSt3__118basic_stringstreamIcNS1_11char_traitsIcEENS1_9allocatorIcEEEE
_ZN7Iex_3_012EhostdownExcC1Ev
_ZN7Iex_3_012EhostdownExcC2EONSt3__112basic_stringIcNS1_11char_traitsIcEENS1_9allocatorIcEEEE
_ZN7Iex_3_012EhostdownExcC2EOS0_
_ZN7Iex_3_012EhostdownExcC2EPKc
_ZN7Iex_3_012EhostdownExcC2ERKNSt3__112basic_stringIcNS1_11char_traitsIcEENS1_9allocatorIcEEEE
_ZN7Iex_3_012EhostdownExcC2ERKS0_
_ZN7Iex_3_012EhostdownExcC2ERNSt3__118basic_stringstreamIcNS1_11char_traitsIcEENS1_9allocatorIcEEEE
_ZN7Iex_3_012EhostdownExcC2Ev
_ZN7Iex_3_012EhostdownExcD0Ev
_ZN7Iex_3_012EhostdownExcD1Ev
_ZN7Iex_3_012EhostdownExcD2Ev
_ZN7Iex_3_012EhostdownExcaSEOS0_
_ZN7Iex_3_012EhostdownExcaSERS0_
_ZN7Iex_3_012EloginlimExcC1EONSt3__112basic_stringIcNS1_11char_traitsIcEENS1_9allocatorIcEEEE
_ZN7Iex_3_012EloginlimExcC1EOS0_
_ZN7Iex_3_012EloginlimExcC1EPKc
_ZN7Iex_3_012EloginlimExcC1ERKNSt3__112basic_stringIcNS1_11char_traitsIcEENS1_9allocatorIcEEEE
_ZN7Iex_3_012EloginlimExcC1ERKS0_
_ZN7Iex_3_012EloginlimExcC1ERNSt3__118basic_stringstreamIcNS1_11char_traitsIcEENS1_9allocatorIcEEEE
_ZN7Iex_3_012EloginlimExcC1Ev
_ZN7Iex_3_012EloginlimExcC2EONSt3__112basic_stringIcNS1_11char_traitsIcEENS1_9allocatorIcEEEE
_ZN7Iex_3_012EloginlimExcC2EOS0_
_ZN7Iex_3_012EloginlimExcC2EPKc
_ZN7Iex_3_012EloginlimExcC2ERKNSt3__112basic_stringIcNS1_11char_traitsIcEENS1_9allocatorIcEEEE
_ZN7Iex_3_012EloginlimExcC2ERKS0_
_ZN7Iex_3_012EloginlimExcC2ERNSt3__118basic_stringstreamIcNS1_11char_traitsIcEENS1_9allocatorIcEEEE
_ZN7Iex_3_012EloginlimExcC2Ev
_ZN7Iex_3_012EloginlimExcD0Ev
_ZN7Iex_3_012EloginlimExcD1Ev
_ZN7Iex_3_012EloginlimExcD2Ev
_ZN7Iex_3_012EloginlimExcaSEOS0_
_ZN7Iex_3_012EloginlimExcaSERS0_
_ZN7Iex_3_012EmultihopExcC1EONSt3__112basic_stringIcNS1_11char_traitsIcEENS1_9allocatorIcEEEE
_ZN7Iex_3_012EmultihopExcC1EOS0_
_ZN7Iex_3_012EmultihopExcC1EPKc
_ZN7Iex_3_012EmultihopExcC1ERKNSt3__112basic_stringIcNS1_11char_traitsIcEENS1_9allocatorIcEEEE
_ZN7Iex_3_012EmultihopExcC1ERKS0_
_ZN7Iex_3_012EmultihopExcC1ERNSt3__118basic_stringstreamIcNS1_11char_traitsIcEENS1_9allocatorIcEEEE
_ZN7Iex_3_012EmultihopExcC1Ev
_ZN7Iex_3_012EmultihopExcC2EONSt3__112basic_stringIcNS1_11char_traitsIcEENS1_9allocatorIcEEEE
_ZN7Iex_3_012EmultihopExcC2EOS0_
_ZN7Iex_3_012EmultihopExcC2EPKc
_ZN7Iex_3_012EmultihopExcC2ERKNSt3__112basic_stringIcNS1_11char_traitsIcEENS1_9allocatorIcEEEE
_ZN7Iex_3_012EmultihopExcC2ERKS0_
_ZN7Iex_3_012EmultihopExcC2ERNSt3__118basic_stringstreamIcNS1_11char_traitsIcEENS1_9allocatorIcEEEE
_ZN7Iex_3_012EmultihopExcC2Ev
_ZN7Iex_3_012EmultihopExcD0Ev
_ZN7Iex_3_012EmultihopExcD1Ev
_ZN7Iex_3_012EmultihopExcD2Ev
_ZN7Iex_3_012EmultihopExcaSEOS0_
_ZN7Iex_3_012EmultihopExcaSERS0_
_ZN7Iex_3_012EnetresetExcC1EONSt3__112basic_stringIcNS1_11char_traitsIcEENS1_9allocatorIcEEEE
_ZN7Iex_3_012EnetresetExcC1EOS0_
_ZN7Iex_3_012EnetresetExcC1EPKc
_ZN7Iex_3_012EnetresetExcC1ERKNSt3__112basic_stringIcNS1_11char_traitsIcEENS1_9allocatorIcEEEE
_ZN7Iex_3_012EnetresetExcC1ERKS0_
_ZN7Iex_3_012EnetresetExcC1ERNSt3__118basic_stringstreamIcNS1_11char_traitsIcEENS1_9allocatorIcEEEE
_ZN7Iex_3_012EnetresetExcC1Ev
_ZN7Iex_3_012EnetresetExcC2EONSt3__112basic_stringIcNS1_11char_traitsIcEENS1_9allocatorIcEEEE
_ZN7Iex_3_012EnetresetExcC2EOS0_
_ZN7Iex_3_012EnetresetExcC2EPKc
_ZN7Iex_3_012EnetresetExcC2ERKNSt3__112basic_stringIcNS1_11char_traitsIcEENS1_9allocatorIcEEEE
_ZN7Iex_3_012EnetresetExcC2ERKS0_
_ZN7Iex_3_012EnetresetExcC2ERNSt3__118basic_stringstreamIcNS1_11char_traitsIcEENS1_9allocatorIcEEEE
_ZN7Iex_3_012EnetresetExcC2Ev
_ZN7Iex_3_012EnetresetExcD0Ev
_ZN7Iex_3_012EnetresetExcD1Ev
_ZN7Iex_3_012EnetresetExcD2Ev
_ZN7Iex_3_012EnetresetExcaSEOS0_
_ZN7Iex_3_012EnetresetExcaSERS0_
_ZN7Iex_3_012EnoattachExcC1EONSt3__112basic_stringIcNS1_11char_traitsIcEENS1_9allocatorIcEEEE
_ZN7Iex_3_012EnoattachExcC1EOS0_
_ZN7Iex_3_012EnoattachExcC1EPKc
_ZN7Iex_3_012EnoattachExcC1ERKNSt3__112basic_stringIcNS1_11char_traitsIcEENS1_9allocatorIcEEEE
_ZN7Iex_3_012EnoattachExcC1ERKS0_
_ZN7Iex_3_012EnoattachExcC1ERNSt3__118basic_stringstreamIcNS1_11char_traitsIcEENS1_9allocatorIcEEEE
_ZN7Iex_3_012EnoattachExcC1Ev
_ZN7Iex_3_012EnoattachExcC2EONSt3__112basic_stringIcNS1_11char_traitsIcEENS1_9allocatorIcEEEE
_ZN7Iex_3_012EnoattachExcC2EOS0_
_ZN7Iex_3_012EnoattachExcC2EPKc
_ZN7Iex_3_012EnoattachExcC2ERKNSt3__112basic_stringIcNS1_11char_traitsIcEENS1_9allocatorIcEEEE
_ZN7Iex_3_012EnoattachExcC2ERKS0_
_ZN7Iex_3_012EnoattachExcC2ERNSt3__118basic_stringstreamIcNS1_11char_traitsIcEENS1_9allocatorIcEEEE
_ZN7Iex_3_012EnoattachExcC2Ev
_ZN7Iex_3_012EnoattachExcD0Ev
_ZN7Iex_3_012EnoattachExcD1Ev
_ZN7Iex_3_012EnoattachExcD2Ev
_ZN7Iex_3_012EnoattachExcaSEOS0_
_ZN7Iex_3_012EnoattachExcaSERS0_
_ZN7Iex_3_012EnotemptyExcC1EONSt3__112basic_stringIcNS1_11char_traitsIcEENS1_9allocatorIcEEEE
_ZN7Iex_3_012EnotemptyExcC1EOS0_
_ZN7Iex_3_012EnotemptyExcC1EPKc
_ZN7Iex_3_012EnotemptyExcC1ERKNSt3__112basic_stringIcNS1_11char_traitsIcEENS1_9allocatorIcEEEE
_ZN7Iex_3_012EnotemptyExcC1ERKS0_
_ZN7Iex_3_012EnotemptyExcC1ERNSt3__118basic_stringstreamIcNS1_11char_traitsIcEENS1_9allocatorIcEEEE
_ZN7Iex_3_012EnotemptyExcC1Ev
_ZN7Iex_3_012EnotemptyExcC2EONSt3__112basic_stringIcNS1_11char_traitsIcEENS1_9allocatorIcEEEE
_ZN7Iex_3_012EnotemptyExcC2EOS0_
_ZN7Iex_3_012EnotemptyExcC2EPKc
_ZN7Iex_3_012EnotemptyExcC2ERKNSt3__112basic_stringIcNS1_11char_traitsIcEENS1_9allocatorIcEEEE
_ZN7Iex_3_012EnotemptyExcC2ERKS0_
_ZN7Iex_3_012EnotemptyExcC2ERNSt3__118basic_stringstreamIcNS1_11char_traitsIcEENS1_9allocatorIcEEEE
_ZN7Iex_3_012EnotemptyExcC2Ev
_ZN7Iex_3_012EnotemptyExcD0Ev
_ZN7Iex_3_012EnotemptyExcD1Ev
_ZN7Iex_3_012EnotemptyExcD2Ev
_ZN7Iex_3_012EnotemptyExcaSEOS0_
_ZN7Iex_3_012EnotemptyExcaSERS0_
_ZN7Iex_3_012EoverflowExcC1EONSt3__112basic_stringIcNS1_11char_traitsIcEENS1_9allocatorIcEEEE
_ZN7Iex_3_012EoverflowExcC1EOS0_
_ZN7Iex_3_012EoverflowExcC1EPKc
_ZN7Iex_3_012EoverflowExcC1ERKNSt3__112basic_stringIcNS1_11char_traitsIcEENS1_9allocatorIcEEEE
_ZN7Iex_3_012EoverflowExcC1ERKS0_
_ZN7Iex_3_012EoverflowExcC1ERNSt3__118basic_stringstreamIcNS1_11char_traitsIcEENS1_9allocatorIcEEEE
_ZN7Iex_3_012EoverflowExcC1Ev
_ZN7Iex_3_012EoverflowExcC2EONSt3__112basic_stringIcNS1_11char_traitsIcEENS1_9allocatorIcEEEE
_ZN7Iex_3_012EoverflowExcC2EOS0_
_ZN7Iex_3_012EoverflowExcC2EPKc
_ZN7Iex_3_012EoverflowExcC2ERKNSt3__112basic_stringIcNS1_11char_traitsIcEENS1_9allocatorIcEEEE
_ZN7Iex_3_012EoverflowExcC2ERKS0_
_ZN7Iex_3_012EoverflowExcC2ERNSt3__118basic_stringstreamIcNS1_11char_traitsIcEENS1_9allocatorIcEEEE
_ZN7Iex_3_012EoverflowExcC2Ev
_ZN7Iex_3_012EoverflowExcD0Ev
_ZN7Iex_3_012EoverflowExcD1Ev
_ZN7Iex_3_012EoverflowExcD2Ev
_ZN7Iex_3_012EoverflowExcaSEOS0_
_ZN7Iex_3_012EoverflowExcaSERS0_
_ZN7Iex_3_012EremoteioExcC1EONSt3__112basic_stringIcNS1_11char_traitsIcEENS1_9allocatorIcEEEE
_ZN7Iex_3_012EremoteioExcC1EOS0_
_ZN7Iex_3_012EremoteioExcC1EPKc
_ZN7Iex_3_012EremoteioExcC1ERKNSt3__112basic_stringIcNS1_11char_traitsIcEENS1_9allocatorIcEEEE
_ZN7Iex_3_012EremoteioExcC1ERKS0_
_ZN7Iex_3_012EremoteioExcC1ERNSt3__118basic_stringstreamIcNS1_11char_traitsIcEENS1_9allocatorIcEEEE
_ZN7Iex_3_012EremoteioExcC1Ev
_ZN7Iex_3_012EremoteioExcC2EONSt3__112basic_stringIcNS1_11char_traitsIcEENS1_9allocatorIcEEEE
_ZN7Iex_3_012EremoteioExcC2EOS0_
_ZN7Iex_3_012EremoteioExcC2EPKc
_ZN7Iex_3_012EremoteioExcC2ERKNSt3__112basic_stringIcNS1_11char_traitsIcEENS1_9allocatorIcEEEE
_ZN7Iex_3_012EremoteioExcC2ERKS0_
_ZN7Iex_3_012EremoteioExcC2ERNSt3__118basic_stringstreamIcNS1_11char_traitsIcEENS1_9allocatorIcEEEE
_ZN7Iex_3_012EremoteioExcC2Ev
_ZN7Iex_3_012EremoteioExcD0Ev
_ZN7Iex_3_012EremoteioExcD1Ev
_ZN7Iex_3_012EremoteioExcD2Ev
_ZN7Iex_3_012EremoteioExcaSEOS0_
_ZN7Iex_3_012EremoteioExcaSERS0_
_ZN7Iex_3_012EshutdownExcC1EONSt3__112basic_stringIcNS1_11char_traitsIcEENS1_9allocatorIcEEEE
_ZN7Iex_3_012EshutdownExcC1EOS0_
_ZN7Iex_3_012EshutdownExcC1EPKc
_ZN7Iex_3_012EshutdownExcC1ERKNSt3__112basic_stringIcNS1_11char_traitsIcEENS1_9allocatorIcEEEE
_ZN7Iex_3_012EshutdownExcC1ERKS0_
_ZN7Iex_3_012EshutdownExcC1ERNSt3__118basic_stringstreamIcNS1_11char_traitsIcEENS1_9allocatorIcEEEE
_ZN7Iex_3_012EshutdownExcC1Ev
_ZN7Iex_3_012EshutdownExcC2EONSt3__112basic_stringIcNS1_11char_traitsIcEENS1_9allocatorIcEEEE
_ZN7Iex_3_012EshutdownExcC2EOS0_
_ZN7Iex_3_012EshutdownExcC2EPKc
_ZN7Iex_3_012EshutdownExcC2ERKNSt3__112basic_stringIcNS1_11char_traitsIcEENS1_9allocatorIcEEEE
_ZN7Iex_3_012EshutdownExcC2ERKS0_
_ZN7Iex_3_012EshutdownExcC2ERNSt3__118basic_stringstreamIcNS1_11char_traitsIcEENS1_9allocatorIcEEEE
_ZN7Iex_3_012EshutdownExcC2Ev
_ZN7Iex_3_012EshutdownExcD0Ev
_ZN7Iex_3_012EshutdownExcD1Ev
_ZN7Iex_3_012EshutdownExcD2Ev
_ZN7Iex_3_012EshutdownExcaSEOS0_
_ZN7Iex_3_012EshutdownExcaSERS0_
_ZN7Iex_3_012EtimedoutExcC1EONSt3__112basic_stringIcNS1_11char_traitsIcEENS1_9allocatorIcEEEE
_ZN7Iex_3_012EtimedoutExcC1EOS0_
_ZN7Iex_3_012EtimedoutExcC1EPKc
_ZN7Iex_3_012EtimedoutExcC1ERKNSt3__112basic_stringIcNS1_11char_traitsIcEENS1_9allocatorIcEEEE
_ZN7Iex_3_012EtimedoutExcC1ERKS0_
_ZN7Iex_3_012EtimedoutExcC1ERNSt3__118basic_stringstreamIcNS1_11char_traitsIcEENS1_9allocatorIcEEEE
_ZN7Iex_3_012EtimedoutExcC1Ev
_ZN7Iex_3_012EtimedoutExcC2EONSt3__112basic_stringIcNS1_11char_traitsIcEENS1_9allocatorIcEEEE
_ZN7Iex_3_012EtimedoutExcC2EOS0_
_ZN7Iex_3_012EtimedoutExcC2EPKc
_ZN7Iex_3_012EtimedoutExcC2ERKNSt3__112basic_stringIcNS1_11char_traitsIcEENS1_9allocatorIcEEEE
_ZN7Iex_3_012EtimedoutExcC2ERKS0_
_ZN7Iex_3_012EtimedoutExcC2ERNSt3__118basic_stringstreamIcNS1_11char_traitsIcEENS1_9allocatorIcEEEE
_ZN7Iex_3_012EtimedoutExcC2Ev
_ZN7Iex_3_012EtimedoutExcD0Ev
_ZN7Iex_3_012EtimedoutExcD1Ev
_ZN7Iex_3_012EtimedoutExcD2Ev
_ZN7Iex_3_012EtimedoutExcaSEOS0_
_ZN7Iex_3_012EtimedoutExcaSERS0_
_ZN7Iex_3_012UnderflowExcC1EONSt3__112basic_stringIcNS1_11char_traitsIcEENS1_9allocatorIcEEEE
_ZN7Iex_3_012UnderflowExcC1EOS0_
_ZN7Iex_3_012UnderflowExcC1EPKc
_ZN7Iex_3_012UnderflowExcC1ERKNSt3__112basic_stringIcNS1_11char_traitsIcEENS1_9allocatorIcEEEE
_ZN7Iex_3_012UnderflowExcC1ERKS0_
_ZN7Iex_3_012UnderflowExcC1ERNSt3__118basic_stringstreamIcNS1_11char_traitsIcEENS1_9allocatorIcEEEE
_ZN7Iex_3_012UnderflowExcC1Ev
_ZN7Iex_3_012UnderflowExcC2EONSt3__112basic_stringIcNS1_11char_traitsIcEENS1_9allocatorIcEEEE
_ZN7Iex_3_012UnderflowExcC2EOS0_
_ZN7Iex_3_012UnderflowExcC2EPKc
_ZN7Iex_3_012UnderflowExcC2ERKNSt3__112basic_stringIcNS1_11char_traitsIcEENS1_9allocatorIcEEEE
_ZN7Iex_3_012UnderflowExcC2ERKS0_
_ZN7Iex_3_012UnderflowExcC2ERNSt3__118basic_stringstreamIcNS1_11char_traitsIcEENS1_9allocatorIcEEEE
_ZN7Iex_3_012UnderflowExcC2Ev
_ZN7Iex_3_012UnderflowExcD0Ev
_ZN7Iex_3_012UnderflowExcD1Ev
_ZN7Iex_3_012UnderflowExcD2Ev
_ZN7Iex_3_012UnderflowExcaSEOS0_
_ZN7Iex_3_012UnderflowExcaSERS0_
_ZN7Iex_3_012getMathExcOnEv
_ZN7Iex_3_013EaddrinuseExcC1EONSt3__112basic_stringIcNS1_11char_traitsIcEENS1_9allocatorIcEEEE
_ZN7Iex_3_013EaddrinuseExcC1EOS0_
_ZN7Iex_3_013EaddrinuseExcC1EPKc
_ZN7Iex_3_013EaddrinuseExcC1ERKNSt3__112basic_stringIcNS1_11char_traitsIcEENS1_9allocatorIcEEEE
_ZN7Iex_3_013EaddrinuseExcC1ERKS0_
_ZN7Iex_3_013EaddrinuseExcC1ERNSt3__118basic_stringstreamIcNS1_11char_traitsIcEENS1_9allocatorIcEEEE
_ZN7Iex_3_013EaddrinuseExcC1Ev
_ZN7Iex_3_013EaddrinuseExcC2EONSt3__112basic_stringIcNS1_11char_traitsIcEENS1_9allocatorIcEEEE
_ZN7Iex_3_013EaddrinuseExcC2EOS0_
_ZN7Iex_3_013EaddrinuseExcC2EPKc
_ZN7Iex_3_013EaddrinuseExcC2ERKNSt3__112basic_stringIcNS1_11char_traitsIcEENS1_9allocatorIcEEEE
_ZN7Iex_3_013EaddrinuseExcC2ERKS0_
_ZN7Iex_3_013EaddrinuseExcC2ERNSt3__118basic_stringstreamIcNS1_11char_traitsIcEENS1_9allocatorIcEEEE
_ZN7Iex_3_013EaddrinuseExcC2Ev
_ZN7Iex_3_013EaddrinuseExcD0Ev
_ZN7Iex_3_013EaddrinuseExcD1Ev
_ZN7Iex_3_013EaddrinuseExcD2Ev
_ZN7Iex_3_013EaddrinuseExcaSEOS0_
_ZN7Iex_3_013EaddrinuseExcaSERS0_
_ZN7Iex_3_013EconnresetExcC1EONSt3__112basic_stringIcNS1_11char_traitsIcEENS1_9allocatorIcEEEE
_ZN7Iex_3_013EconnresetExcC1EOS0_
_ZN7Iex_3_013EconnresetExcC1EPKc
_ZN7Iex_3_013EconnresetExcC1ERKNSt3__112basic_stringIcNS1_11char_traitsIcEENS1_9allocatorIcEEEE
_ZN7Iex_3_013EconnresetExcC1ERKS0_
_ZN7Iex_3_013EconnresetExcC1ERNSt3__118basic_stringstreamIcNS1_11char_traitsIcEENS1_9allocatorIcEEEE
_ZN7Iex_3_013EconnresetExcC1Ev
_ZN7Iex_3_013EconnresetExcC2EONSt3__112basic_stringIcNS1_11char_traitsIcEENS1_9allocatorIcEEEE
_ZN7Iex_3_013EconnresetExcC2EOS0_
_ZN7Iex_3_013EconnresetExcC2EPKc
_ZN7Iex_3_013EconnresetExcC2ERKNSt3__112basic_stringIcNS1_11char_traitsIcEENS1_9allocatorIcEEEE
_ZN7Iex_3_013EconnresetExcC2ERKS0_
_ZN7Iex_3_013EconnresetExcC2ERNSt3__118basic_stringstreamIcNS1_11char_traitsIcEENS1_9allocatorIcEEEE
_ZN7Iex_3_013EconnresetExcC2Ev
_ZN7Iex_3_013EconnresetExcD0Ev
_ZN7Iex_3_013EconnresetExcD1Ev
_ZN7Iex_3_013EconnresetExcD2Ev
_ZN7Iex_3_013EconnresetExcaSEOS0_
_ZN7Iex_3_013EconnresetExcaSERS0_
_ZN7Iex_3_013EdestroyedExcC1EONSt3__112basic_stringIcNS1_11char_traitsIcEENS1_9allocatorIcEEEE
_ZN7Iex_3_013EdestroyedExcC1EOS0_
_ZN7Iex_3_013EdestroyedExcC1EPKc
_ZN7Iex_3_013EdestroyedExcC1ERKNSt3__112basic_stringIcNS1_11char_traitsIcEENS1_9allocatorIcEEEE
_ZN7Iex_3_013EdestroyedExcC1ERKS0_
_ZN7Iex_3_013EdestroyedExcC1ERNSt3__118basic_stringstreamIcNS1_11char_traitsIcEENS1_9allocatorIcEEEE
_ZN7Iex_3_013EdestroyedExcC1Ev
_ZN7Iex_3_013EdestroyedExcC2EONSt3__112basic_stringIcNS1_11char_traitsIcEENS1_9allocatorIcEEEE
_ZN7Iex_3_013EdestroyedExcC2EOS0_
_ZN7Iex_3_013EdestroyedExcC2EPKc
_ZN7Iex_3_013EdestroyedExcC2ERKNSt3__112basic_stringIcNS1_11char_traitsIcEENS1_9allocatorIcEEEE
_ZN7Iex_3_013EdestroyedExcC2ERKS0_
_ZN7Iex_3_013EdestroyedExcC2ERNSt3__118basic_stringstreamIcNS1_11char_traitsIcEENS1_9allocatorIcEEEE
_ZN7Iex_3_013EdestroyedExcC2Ev
_ZN7Iex_3_013EdestroyedExcD0Ev
_ZN7Iex_3_013EdestroyedExcD1Ev
_ZN7Iex_3_013EdestroyedExcD2Ev
_ZN7Iex_3_013EdestroyedExcaSEOS0_
_ZN7Iex_3_013EdestroyedExcaSERS0_
_ZN7Iex_3_013EgrouploopExcC1EONSt3__112basic_stringIcNS1_11char_traitsIcEENS1_9allocatorIcEEEE
_ZN7Iex_3_013EgrouploopExcC1EOS0_
_ZN7Iex_3_013EgrouploopExcC1EPKc
_ZN7Iex_3_013EgrouploopExcC1ERKNSt3__112basic_stringIcNS1_11char_traitsIcEENS1_9allocatorIcEEEE
_ZN7Iex_3_013EgrouploopExcC1ERKS0_
_ZN7Iex_3_013EgrouploopExcC1ERNSt3__118basic_stringstreamIcNS1_11char_traitsIcEENS1_9allocatorIcEEEE
_ZN7Iex_3_013EgrouploopExcC1Ev
_ZN7Iex_3_013EgrouploopExcC2EONSt3__112basic_stringIcNS1_11char_traitsIcEENS1_9allocatorIcEEEE
_ZN7Iex_3_013EgrouploopExcC2EOS0_
_ZN7Iex_3_013EgrouploopExcC2EPKc
_ZN7Iex_3_013EgrouploopExcC2ERKNSt3__112basic_stringIcNS1_11char_traitsIcEENS1_9allocatorIcEEEE
_ZN7Iex_3_013EgrouploopExcC2ERKS0_
_ZN7Iex_3_013EgrouploopExcC2ERNSt3__118basic_stringstreamIcNS1_11char_traitsIcEENS1_9allocatorIcEEEE
_ZN7Iex_3_013EgrouploopExcC2Ev
_ZN7Iex_3_013EgrouploopExcD0Ev
_ZN7Iex_3_013EgrouploopExcD1Ev
_ZN7Iex_3_013EgrouploopExcD2Ev
_ZN7Iex_3_013EgrouploopExcaSEOS0_
_ZN7Iex_3_013EgrouploopExcaSERS0_
_ZN7Iex_3_013EinvalmodeExcC1EONSt3__112basic_stringIcNS1_11char_traitsIcEENS1_9allocatorIcEEEE
_ZN7Iex_3_013EinvalmodeExcC1EOS0_
_ZN7Iex_3_013EinvalmodeExcC1EPKc
_ZN7Iex_3_013EinvalmodeExcC1ERKNSt3__112basic_stringIcNS1_11char_traitsIcEENS1_9allocatorIcEEEE
_ZN7Iex_3_013EinvalmodeExcC1ERKS0_
_ZN7Iex_3_013EinvalmodeExcC1ERNSt3__118basic_stringstreamIcNS1_11char_traitsIcEENS1_9allocatorIcEEEE
_ZN7Iex_3_013EinvalmodeExcC1Ev
_ZN7Iex_3_013EinvalmodeExcC2EONSt3__112basic_stringIcNS1_11char_traitsIcEENS1_9allocatorIcEEEE
_ZN7Iex_3_013EinvalmodeExcC2EOS0_
_ZN7Iex_3_013EinvalmodeExcC2EPKc
_ZN7Iex_3_013EinvalmodeExcC2ERKNSt3__112basic_stringIcNS1_11char_traitsIcEENS1_9allocatorIcEEEE
_ZN7Iex_3_013EinvalmodeExcC2ERKS0_
_ZN7Iex_3_013EinvalmodeExcC2ERNSt3__118basic_stringstreamIcNS1_11char_traitsIcEENS1_9allocatorIcEEEE
_ZN7Iex_3_013EinvalmodeExcC2Ev
_ZN7Iex_3_013EinvalmodeExcD0Ev
_ZN7Iex_3_013EinvalmodeExcD1Ev
_ZN7Iex_3_013EinvalmodeExcD2Ev
_ZN7Iex_3_013EinvalmodeExcaSEOS0_
_ZN7Iex_3_013EinvalmodeExcaSERS0_
_ZN7Iex_3_013EinvaltimeExcC1EONSt3__112basic_stringIcNS1_11char_traitsIcEENS1_9allocatorIcEEEE
_ZN7Iex_3_013EinvaltimeExcC1EOS0_
_ZN7Iex_3_013EinvaltimeExcC1EPKc
_ZN7Iex_3_013EinvaltimeExcC1ERKNSt3__112basic_stringIcNS1_11char_traitsIcEENS1_9allocatorIcEEEE
_ZN7Iex_3_013EinvaltimeExcC1ERKS0_
_ZN7Iex_3_013EinvaltimeExcC1ERNSt3__118basic_stringstreamIcNS1_11char_traitsIcEENS1_9allocatorIcEEEE
_ZN7Iex_3_013EinvaltimeExcC1Ev
_ZN7Iex_3_013EinvaltimeExcC2EONSt3__112basic_stringIcNS1_11char_traitsIcEENS1_9allocatorIcEEEE
_ZN7Iex_3_013EinvaltimeExcC2EOS0_
_ZN7Iex_3_013EinvaltimeExcC2EPKc
_ZN7Iex_3_013EinvaltimeExcC2ERKNSt3__112basic_stringIcNS1_11char_traitsIcEENS1_9allocatorIcEEEE
_ZN7Iex_3_013EinvaltimeExcC2ERKS0_
_ZN7Iex_3_013EinvaltimeExcC2ERNSt3__118basic_stringstreamIcNS1_11char_traitsIcEENS1_9allocatorIcEEEE
_ZN7Iex_3_013EinvaltimeExcC2Ev
_ZN7Iex_3_013EinvaltimeExcD0Ev
_ZN7Iex_3_013EinvaltimeExcD1Ev
_ZN7Iex_3_013EinvaltimeExcD2Ev
_ZN7Iex_3_013EinvaltimeExcaSEOS0_
_ZN7Iex_3_013EinvaltimeExcaSERS0_
_ZN7Iex_3_013EnfsremoteExcC1EONSt3__112basic_stringIcNS1_11char_traitsIcEENS1_9allocatorIcEEEE
_ZN7Iex_3_013EnfsremoteExcC1EOS0_
_ZN7Iex_3_013EnfsremoteExcC1EPKc
_ZN7Iex_3_013EnfsremoteExcC1ERKNSt3__112basic_stringIcNS1_11char_traitsIcEENS1_9allocatorIcEEEE
_ZN7Iex_3_013EnfsremoteExcC1ERKS0_
_ZN7Iex_3_013EnfsremoteExcC1ERNSt3__118basic_stringstreamIcNS1_11char_traitsIcEENS1_9allocatorIcEEEE
_ZN7Iex_3_013EnfsremoteExcC1Ev
_ZN7Iex_3_013EnfsremoteExcC2EONSt3__112basic_stringIcNS1_11char_traitsIcEENS1_9allocatorIcEEEE
_ZN7Iex_3_013EnfsremoteExcC2EOS0_
_ZN7Iex_3_013EnfsremoteExcC2EPKc
_ZN7Iex_3_013EnfsremoteExcC2ERKNSt3__112basic_stringIcNS1_11char_traitsIcEENS1_9allocatorIcEEEE
_ZN7Iex_3_013EnfsremoteExcC2ERKS0_
_ZN7Iex_3_013EnfsremoteExcC2ERNSt3__118basic_stringstreamIcNS1_11char_traitsIcEENS1_9allocatorIcEEEE
_ZN7Iex_3_013EnfsremoteExcC2Ev
_ZN7Iex_3_013EnfsremoteExcD0Ev
_ZN7Iex_3_013EnfsremoteExcD1Ev
_ZN7Iex_3_013EnfsremoteExcD2Ev
_ZN7Iex_3_013EnfsremoteExcaSEOS0_
_ZN7Iex_3_013EnfsremoteExcaSERS0_
_ZN7Iex_3_013EnolimfileExcC1EONSt3__112basic_stringIcNS1_11char_traitsIcEENS1_9allocatorIcEEEE
_ZN7Iex_3_013EnolimfileExcC1EOS0_
_ZN7Iex_3_013EnolimfileExcC1EPKc
_ZN7Iex_3_013EnolimfileExcC1ERKNSt3__112basic_stringIcNS1_11char_traitsIcEENS1_9allocatorIcEEEE
_ZN7Iex_3_013EnolimfileExcC1ERKS0_
_ZN7Iex_3_013EnolimfileExcC1ERNSt3__118basic_stringstreamIcNS1_11char_traitsIcEENS1_9allocatorIcEEEE
_ZN7Iex_3_013EnolimfileExcC1Ev
_ZN7Iex_3_013EnolimfileExcC2EONSt3__112basic_stringIcNS1_11char_traitsIcEENS1_9allocatorIcEEEE
_ZN7Iex_3_013EnolimfileExcC2EOS0_
_ZN7Iex_3_013EnolimfileExcC2EPKc
_ZN7Iex_3_013EnolimfileExcC2ERKNSt3__112basic_stringIcNS1_11char_traitsIcEENS1_9allocatorIcEEEE
_ZN7Iex_3_013EnolimfileExcC2ERKS0_
_ZN7Iex_3_013EnolimfileExcC2ERNSt3__118basic_stringstreamIcNS1_11char_traitsIcEENS1_9allocatorIcEEEE
_ZN7Iex_3_013EnolimfileExcC2Ev
_ZN7Iex_3_013EnolimfileExcD0Ev
_ZN7Iex_3_013EnolimfileExcD1Ev
_ZN7Iex_3_013EnolimfileExcD2Ev
_ZN7Iex_3_013EnolimfileExcaSEOS0_
_ZN7Iex_3_013EnolimfileExcaSERS0_
_ZN7Iex_3_013EnotjoinedExcC1EONSt3__112basic_stringIcNS1_11char_traitsIcEENS1_9allocatorIcEEEE
_ZN7Iex_3_013EnotjoinedExcC1EOS0_
_ZN7Iex_3_013EnotjoinedExcC1EPKc
_ZN7Iex_3_013EnotjoinedExcC1ERKNSt3__112basic_stringIcNS1_11char_traitsIcEENS1_9allocatorIcEEEE
_ZN7Iex_3_013EnotjoinedExcC1ERKS0_
_ZN7Iex_3_013EnotjoinedExcC1ERNSt3__118basic_stringstreamIcNS1_11char_traitsIcEENS1_9allocatorIcEEEE
_ZN7Iex_3_013EnotjoinedExcC1Ev
_ZN7Iex_3_013EnotjoinedExcC2EONSt3__112basic_stringIcNS1_11char_traitsIcEENS1_9allocatorIcEEEE
_ZN7Iex_3_013EnotjoinedExcC2EOS0_
_ZN7Iex_3_013EnotjoinedExcC2EPKc
_ZN7Iex_3_013EnotjoinedExcC2ERKNSt3__112basic_stringIcNS1_11char_traitsIcEENS1_9allocatorIcEEEE
_ZN7Iex_3_013EnotjoinedExcC2ERKS0_
_ZN7Iex_3_013EnotjoinedExcC2ERNSt3__118basic_stringstreamIcNS1_11char_traitsIcEENS1_9allocatorIcEEEE
_ZN7Iex_3_013EnotjoinedExcC2Ev
_ZN7Iex_3_013EnotjoinedExcD0Ev
_ZN7Iex_3_013EnotjoinedExcD1Ev
_ZN7Iex_3_013EnotjoinedExcD2Ev
_ZN7Iex_3_013EnotjoinedExcaSEOS0_
_ZN7Iex_3_013EnotjoinedExcaSERS0_
_ZN7Iex_3_013EopnotsuppExcC1EONSt3__112basic_stringIcNS1_11char_traitsIcEENS1_9allocatorIcEEEE
_ZN7Iex_3_013EopnotsuppExcC1EOS0_
_ZN7Iex_3_013EopnotsuppExcC1EPKc
_ZN7Iex_3_013EopnotsuppExcC1ERKNSt3__112basic_stringIcNS1_11char_traitsIcEENS1_9allocatorIcEEEE
_ZN7Iex_3_013EopnotsuppExcC1ERKS0_
_ZN7Iex_3_013EopnotsuppExcC1ERNSt3__118basic_stringstreamIcNS1_11char_traitsIcEENS1_9allocatorIcEEEE
_ZN7Iex_3_013EopnotsuppExcC1Ev
_ZN7Iex_3_013EopnotsuppExcC2EONSt3__112basic_stringIcNS1_11char_traitsIcEENS1_9allocatorIcEEEE
_ZN7Iex_3_013EopnotsuppExcC2EOS0_
_ZN7Iex_3_013EopnotsuppExcC2EPKc
_ZN7Iex_3_013EopnotsuppExcC2ERKNSt3__112basic_stringIcNS1_11char_traitsIcEENS1_9allocatorIcEEEE
_ZN7Iex_3_013EopnotsuppExcC2ERKS0_
_ZN7Iex_3_013EopnotsuppExcC2ERNSt3__118basic_stringstreamIcNS1_11char_traitsIcEENS1_9allocatorIcEEEE
_ZN7Iex_3_013EopnotsuppExcC2Ev
_ZN7Iex_3_013EopnotsuppExcD0Ev
_ZN7Iex_3_013EopnotsuppExcD1Ev
_ZN7Iex_3_013EopnotsuppExcD2Ev
_ZN7Iex_3_013EopnotsuppExcaSEOS0_
_ZN7Iex_3_013EopnotsuppExcaSERS0_
_ZN7Iex_3_013EprototypeExcC1EONSt3__112basic_stringIcNS1_11char_traitsIcEENS1_9allocatorIcEEEE
_ZN7Iex_3_013EprototypeExcC1EOS0_
_ZN7Iex_3_013EprototypeExcC1EPKc
_ZN7Iex_3_013EprototypeExcC1ERKNSt3__112basic_stringIcNS1_11char_traitsIcEENS1_9allocatorIcEEEE
_ZN7Iex_3_013EprototypeExcC1ERKS0_
_ZN7Iex_3_013EprototypeExcC1ERNSt3__118basic_stringstreamIcNS1_11char_traitsIcEENS1_9allocatorIcEEEE
_ZN7Iex_3_013EprototypeExcC1Ev
_ZN7Iex_3_013EprototypeExcC2EONSt3__112basic_stringIcNS1_11char_traitsIcEENS1_9allocatorIcEEEE
_ZN7Iex_3_013EprototypeExcC2EOS0_
_ZN7Iex_3_013EprototypeExcC2EPKc
_ZN7Iex_3_013EprototypeExcC2ERKNSt3__112basic_stringIcNS1_11char_traitsIcEENS1_9allocatorIcEEEE
_ZN7Iex_3_013EprototypeExcC2ERKS0_
_ZN7Iex_3_013EprototypeExcC2ERNSt3__118basic_stringstreamIcNS1_11char_traitsIcEENS1_9allocatorIcEEEE
_ZN7Iex_3_013EprototypeExcC2Ev
_ZN7Iex_3_013EprototypeExcD0Ev
_ZN7Iex_3_013EprototypeExcD1Ev
_ZN7Iex_3_013EprototypeExcD2Ev
_ZN7Iex_3_013EprototypeExcaSEOS0_
_ZN7Iex_3_013EprototypeExcaSERS0_
_ZN7Iex_3_013throwErrnoExcERKNSt3__112basic_stringIcNS0_11char_traitsIcEENS0_9allocatorIcEEEE
_ZN7Iex_3_013throwErrnoExcERKNSt3__112basic_stringIcNS0_11char_traitsIcEENS0_9allocatorIcEEEEi
_ZN7Iex_3_013throwErrnoExcEv
_ZN7Iex_3_014EcantextentExcC1EONSt3__112basic_stringIcNS1_11char_traitsIcEENS1_9allocatorIcEEEE
_ZN7Iex_3_014EcantextentExcC1EOS0_
_ZN7Iex_3_014EcantextentExcC1EPKc
_ZN7Iex_3_014EcantextentExcC1ERKNSt3__112basic_stringIcNS1_11char_traitsIcEENS1_9allocatorIcEEEE
_ZN7Iex_3_014EcantextentExcC1ERKS0_
_ZN7Iex_3_014EcantextentExcC1ERNSt3__118basic_stringstreamIcNS1_11char_traitsIcEENS1_9allocatorIcEEEE
_ZN7Iex_3_014EcantextentExcC1Ev
_ZN7Iex_3_014EcantextentExcC2EONSt3__112basic_stringIcNS1_11char_traitsIcEENS1_9allocatorIcEEEE
_ZN7Iex_3_014EcantextentExcC2EOS0_
_ZN7Iex_3_014EcantextentExcC2EPKc
_ZN7Iex_3_014EcantextentExcC2ERKNSt3__112basic_stringIcNS1_11char_traitsIcEENS1_9allocatorIcEEEE
_ZN7Iex_3_014EcantextentExcC2ERKS0_
_ZN7Iex_3_014EcantextentExcC2ERNSt3__118basic_stringstreamIcNS1_11char_traitsIcEENS1_9allocatorIcEEEE
_ZN7Iex_3_014EcantextentExcC2Ev
_ZN7Iex_3_014EcantextentExcD0Ev
_ZN7Iex_3_014EcantextentExcD1Ev
_ZN7Iex_3_014EcantextentExcD2Ev
_ZN7Iex_3_014EcantextentExcaSEOS0_
_ZN7Iex_3_014EcantextentExcaSERS0_
_ZN7Iex_3_014EcontrollerExcC1EONSt3__112basic_stringIcNS1_11char_traitsIcEENS1_9allocatorIcEEEE
_ZN7Iex_3_014EcontrollerExcC1EOS0_
_ZN7Iex_3_014EcontrollerExcC1EPKc
_ZN7Iex_3_014EcontrollerExcC1ERKNSt3__112basic_stringIcNS1_11char_traitsIcEENS1_9allocatorIcEEEE
_ZN7Iex_3_014EcontrollerExcC1ERKS0_
_ZN7Iex_3_014EcontrollerExcC1ERNSt3__118basic_stringstreamIcNS1_11char_traitsIcEENS1_9allocatorIcEEEE
_ZN7Iex_3_014EcontrollerExcC1Ev
_ZN7Iex_3_014EcontrollerExcC2EONSt3__112basic_stringIcNS1_11char_traitsIcEENS1_9allocatorIcEEEE
_ZN7Iex_3_014EcontrollerExcC2EOS0_
_ZN7Iex_3_014EcontrollerExcC2EPKc
_ZN7Iex_3_014EcontrollerExcC2ERKNSt3__112basic_stringIcNS1_11char_traitsIcEENS1_9allocatorIcEEEE
_ZN7Iex_3_014EcontrollerExcC2ERKS0_
_ZN7Iex_3_014EcontrollerExcC2ERNSt3__118basic_stringstreamIcNS1_11char_traitsIcEENS1_9allocatorIcEEEE
_ZN7Iex_3_014EcontrollerExcC2Ev
_ZN7Iex_3_014EcontrollerExcD0Ev
_ZN7Iex_3_014EcontrollerExcD1Ev
_ZN7Iex_3_014EcontrollerExcD2Ev
_ZN7Iex_3_014EcontrollerExcaSEOS0_
_ZN7Iex_3_014EcontrollerExcaSERS0_
_ZN7Iex_3_014EendofminorExcC1EONSt3__112basic_stringIcNS1_11char_traitsIcEENS1_9allocatorIcEEEE
_ZN7Iex_3_014EendofminorExcC1EOS0_
_ZN7Iex_3_014EendofminorExcC1EPKc
_ZN7Iex_3_014EendofminorExcC1ERKNSt3__112basic_stringIcNS1_11char_traitsIcEENS1_9allocatorIcEEEE
_ZN7Iex_3_014EendofminorExcC1ERKS0_
_ZN7Iex_3_014EendofminorExcC1ERNSt3__118basic_stringstreamIcNS1_11char_traitsIcEENS1_9allocatorIcEEEE
_ZN7Iex_3_014EendofminorExcC1Ev
_ZN7Iex_3_014EendofminorExcC2EONSt3__112basic_stringIcNS1_11char_traitsIcEENS1_9allocatorIcEEEE
_ZN7Iex_3_014EendofminorExcC2EOS0_
_ZN7Iex_3_014EendofminorExcC2EPKc
_ZN7Iex_3_014EendofminorExcC2ERKNSt3__112basic_stringIcNS1_11char_traitsIcEENS1_9allocatorIcEEEE
_ZN7Iex_3_014EendofminorExcC2ERKS0_
_ZN7Iex_3_014EendofminorExcC2ERNSt3__118basic_stringstreamIcNS1_11char_traitsIcEENS1_9allocatorIcEEEE
_ZN7Iex_3_014EendofminorExcC2Ev
_ZN7Iex_3_014EendofminorExcD0Ev
_ZN7Iex_3_014EendofminorExcD1Ev
_ZN7Iex_3_014EendofminorExcD2Ev
_ZN7Iex_3_014EendofminorExcaSEOS0_
_ZN7Iex_3_014EendofminorExcaSERS0_
_ZN7Iex_3_014EinprogressExcC1EONSt3__112basic_stringIcNS1_11char_traitsIcEENS1_9allocatorIcEEEE
_ZN7Iex_3_014EinprogressExcC1EOS0_
_ZN7Iex_3_014EinprogressExcC1EPKc
_ZN7Iex_3_014EinprogressExcC1ERKNSt3__112basic_stringIcNS1_11char_traitsIcEENS1_9allocatorIcEEEE
_ZN7Iex_3_014EinprogressExcC1ERKS0_
_ZN7Iex_3_014EinprogressExcC1ERNSt3__118basic_stringstreamIcNS1_11char_traitsIcEENS1_9allocatorIcEEEE
_ZN7Iex_3_014EinprogressExcC1Ev
_ZN7Iex_3_014EinprogressExcC2EONSt3__112basic_stringIcNS1_11char_traitsIcEENS1_9allocatorIcEEEE
_ZN7Iex_3_014EinprogressExcC2EOS0_
_ZN7Iex_3_014EinprogressExcC2EPKc
_ZN7Iex_3_014EinprogressExcC2ERKNSt3__112basic_stringIcNS1_11char_traitsIcEENS1_9allocatorIcEEEE
_ZN7Iex_3_014EinprogressExcC2ERKS0_
_ZN7Iex_3_014EinprogressExcC2ERNSt3__118basic_stringstreamIcNS1_11char_traitsIcEENS1_9allocatorIcEEEE
_ZN7Iex_3_014EinprogressExcC2Ev
_ZN7Iex_3_014EinprogressExcD0Ev
_ZN7Iex_3_014EinprogressExcD1Ev
_ZN7Iex_3_014EinprogressExcD2Ev
_ZN7Iex_3_014EinprogressExcaSEOS0_
_ZN7Iex_3_014EinprogressExcaSERS0_
_ZN7Iex_3_014EinvalstateExcC1EONSt3__112basic_stringIcNS1_11char_traitsIcEENS1_9allocatorIcEEEE
_ZN7Iex_3_014EinvalstateExcC1EOS0_
_ZN7Iex_3_014EinvalstateExcC1EPKc
_ZN7Iex_3_014EinvalstateExcC1ERKNSt3__112basic_stringIcNS1_11char_traitsIcEENS1_9allocatorIcEEEE
_ZN7Iex_3_014EinvalstateExcC1ERKS0_
_ZN7Iex_3_014EinvalstateExcC1ERNSt3__118basic_stringstreamIcNS1_11char_traitsIcEENS1_9allocatorIcEEEE
_ZN7Iex_3_014EinvalstateExcC1Ev
_ZN7Iex_3_014EinvalstateExcC2EONSt3__112basic_stringIcNS1_11char_traitsIcEENS1_9allocatorIcEEEE
_ZN7Iex_3_014EinvalstateExcC2EOS0_
_ZN7Iex_3_014EinvalstateExcC2EPKc
_ZN7Iex_3_014EinvalstateExcC2ERKNSt3__112basic_stringIcNS1_11char_traitsIcEENS1_9allocatorIcEEEE
_ZN7Iex_3_014EinvalstateExcC2ERKS0_
_ZN7Iex_3_014EinvalstateExcC2ERNSt3__118basic_stringstreamIcNS1_11char_traitsIcEENS1_9allocatorIcEEEE
_ZN7Iex_3_014EinvalstateExcC2Ev
_ZN7Iex_3_014EinvalstateExcD0Ev
_ZN7Iex_3_014EinvalstateExcD1Ev
_ZN7Iex_3_014EinvalstateExcD2Ev
_ZN7Iex_3_014EinvalstateExcaSEOS0_
_ZN7Iex_3_014EinvalstateExcaSERS0_
_ZN7Iex_3_014EnetunreachExcC1EONSt3__112basic_stringIcNS1_11char_traitsIcEENS1_9allocatorIcEEEE
_ZN7Iex_3_014EnetunreachExcC1EOS0_
_ZN7Iex_3_014EnetunreachExcC1EPKc
_ZN7Iex_3_014EnetunreachExcC1ERKNSt3__112basic_stringIcNS1_11char_traitsIcEENS1_9allocatorIcEEEE
_ZN7Iex_3_014EnetunreachExcC1ERKS0_
_ZN7Iex_3_014EnetunreachExcC1ERNSt3__118basic_stringstreamIcNS1_11char_traitsIcEENS1_9allocatorIcEEEE
_ZN7Iex_3_014EnetunreachExcC1Ev
_ZN7Iex_3_014EnetunreachExcC2EONSt3__112basic_stringIcNS1_11char_traitsIcEENS1_9allocatorIcEEEE
_ZN7Iex_3_014EnetunreachExcC2EOS0_
_ZN7Iex_3_014EnetunreachExcC2EPKc
_ZN7Iex_3_014EnetunreachExcC2ERKNSt3__112basic_stringIcNS1_11char_traitsIcEENS1_9allocatorIcEEEE
_ZN7Iex_3_014EnetunreachExcC2ERKS0_
_ZN7Iex_3_014EnetunreachExcC2ERNSt3__118basic_stringstreamIcNS1_11char_traitsIcEENS1_9allocatorIcEEEE
_ZN7Iex_3_014EnetunreachExcC2Ev
_ZN7Iex_3_014EnetunreachExcD0Ev
_ZN7Iex_3_014EnetunreachExcD1Ev
_ZN7Iex_3_014EnetunreachExcD2Ev
_ZN7Iex_3_014EnetunreachExcaSEOS0_
_ZN7Iex_3_014EnetunreachExcaSERS0_
_ZN7Iex_3_014EnoprotooptExcC1EONSt3__112basic_stringIcNS1_11char_traitsIcEENS1_9allocatorIcEEEE
_ZN7Iex_3_014EnoprotooptExcC1EOS0_
_ZN7Iex_3_014EnoprotooptExcC1EPKc
_ZN7Iex_3_014EnoprotooptExcC1ERKNSt3__112basic_stringIcNS1_11char_traitsIcEENS1_9allocatorIcEEEE
_ZN7Iex_3_014EnoprotooptExcC1ERKS0_
_ZN7Iex_3_014EnoprotooptExcC1ERNSt3__118basic_stringstreamIcNS1_11char_traitsIcEENS1_9allocatorIcEEEE
_ZN7Iex_3_014EnoprotooptExcC1Ev
_ZN7Iex_3_014EnoprotooptExcC2EONSt3__112basic_stringIcNS1_11char_traitsIcEENS1_9allocatorIcEEEE
_ZN7Iex_3_014EnoprotooptExcC2EOS0_
_ZN7Iex_3_014EnoprotooptExcC2EPKc
_ZN7Iex_3_014EnoprotooptExcC2ERKNSt3__112basic_stringIcNS1_11char_traitsIcEENS1_9allocatorIcEEEE
_ZN7Iex_3_014EnoprotooptExcC2ERKS0_
_ZN7Iex_3_014EnoprotooptExcC2ERNSt3__118basic_stringstreamIcNS1_11char_traitsIcEENS1_9allocatorIcEEEE
_ZN7Iex_3_014EnoprotooptExcC2Ev
_ZN7Iex_3_014EnoprotooptExcD0Ev
_ZN7Iex_3_014EnoprotooptExcD1Ev
_ZN7Iex_3_014EnoprotooptExcD2Ev
_ZN7Iex_3_014EnoprotooptExcaSEOS0_
_ZN7Iex_3_014EnoprotooptExcaSERS0_
_ZN7Iex_3_014EnotstoppedExcC1EONSt3__112basic_stringIcNS1_11char_traitsIcEENS1_9allocatorIcEEEE
_ZN7Iex_3_014EnotstoppedExcC1EOS0_
_ZN7Iex_3_014EnotstoppedExcC1EPKc
_ZN7Iex_3_014EnotstoppedExcC1ERKNSt3__112basic_stringIcNS1_11char_traitsIcEENS1_9allocatorIcEEEE
_ZN7Iex_3_014EnotstoppedExcC1ERKS0_
_ZN7Iex_3_014EnotstoppedExcC1ERNSt3__118basic_stringstreamIcNS1_11char_traitsIcEENS1_9allocatorIcEEEE
_ZN7Iex_3_014EnotstoppedExcC1Ev
_ZN7Iex_3_014EnotstoppedExcC2EONSt3__112basic_stringIcNS1_11char_traitsIcEENS1_9allocatorIcEEEE
_ZN7Iex_3_014EnotstoppedExcC2EOS0_
_ZN7Iex_3_014EnotstoppedExcC2EPKc
_ZN7Iex_3_014EnotstoppedExcC2ERKNSt3__112basic_stringIcNS1_11char_traitsIcEENS1_9allocatorIcEEEE
_ZN7Iex_3_014EnotstoppedExcC2ERKS0_
_ZN7Iex_3_014EnotstoppedExcC2ERNSt3__118basic_stringstreamIcNS1_11char_traitsIcEENS1_9allocatorIcEEEE
_ZN7Iex_3_014EnotstoppedExcC2Ev
_ZN7Iex_3_014EnotstoppedExcD0Ev
_ZN7Iex_3_014EnotstoppedExcD1Ev
_ZN7Iex_3_014EnotstoppedExcD2Ev
_ZN7Iex_3_014EnotstoppedExcaSEOS0_
_ZN7Iex_3_014EnotstoppedExcaSERS0_
_ZN7Iex_3_014InvalidFpOpExcC1EONSt3__112basic_stringIcNS1_11char_traitsIcEENS1_9allocatorIcEEEE
_ZN7Iex_3_014InvalidFpOpExcC1EOS0_
_ZN7Iex_3_014InvalidFpOpExcC1EPKc
_ZN7Iex_3_014InvalidFpOpExcC1ERKNSt3__112basic_stringIcNS1_11char_traitsIcEENS1_9allocatorIcEEEE
_ZN7Iex_3_014InvalidFpOpExcC1ERKS0_
_ZN7Iex_3_014InvalidFpOpExcC1ERNSt3__118basic_stringstreamIcNS1_11char_traitsIcEENS1_9allocatorIcEEEE
_ZN7Iex_3_014InvalidFpOpExcC1Ev
_ZN7Iex_3_014InvalidFpOpExcC2EONSt3__112basic_stringIcNS1_11char_traitsIcEENS1_9allocatorIcEEEE
_ZN7Iex_3_014InvalidFpOpExcC2EOS0_
_ZN7Iex_3_014InvalidFpOpExcC2EPKc
_ZN7Iex_3_014InvalidFpOpExcC2ERKNSt3__112basic_stringIcNS1_11char_traitsIcEENS1_9allocatorIcEEEE
_ZN7Iex_3_014InvalidFpOpExcC2ERKS0_
_ZN7Iex_3_014InvalidFpOpExcC2ERNSt3__118basic_stringstreamIcNS1_11char_traitsIcEENS1_9allocatorIcEEEE
_ZN7Iex_3_014InvalidFpOpExcC2Ev
_ZN7Iex_3_014InvalidFpOpExcD0Ev
_ZN7Iex_3_014InvalidFpOpExcD1Ev
_ZN7Iex_3_014InvalidFpOpExcD2Ev
_ZN7Iex_3_014InvalidFpOpExcaSEOS0_
_ZN7Iex_3_014InvalidFpOpExcaSERS0_
_ZN7Iex_3_014setStackTracerEPFNSt3__112basic_stringIcNS0_11char_traitsIcEENS0_9allocatorIcEEEEvE
_ZN7Iex_3_015EafnosupportExcC1EONSt3__112basic_stringIcNS1_11char_traitsIcEENS1_9allocatorIcEEEE
_ZN7Iex_3_015EafnosupportExcC1EOS0_
_ZN7Iex_3_015EafnosupportExcC1EPKc
_ZN7Iex_3_015EafnosupportExcC1ERKNSt3__112basic_stringIcNS1_11char_traitsIcEENS1_9allocatorIcEEEE
_ZN7Iex_3_015EafnosupportExcC1ERKS0_
_ZN7Iex_3_015EafnosupportExcC1ERNSt3__118basic_stringstreamIcNS1_11char_traitsIcEENS1_9allocatorIcEEEE
_ZN7Iex_3_015EafnosupportExcC1Ev
_ZN7Iex_3_015EafnosupportExcC2EONSt3__112basic_stringIcNS1_11char_traitsIcEENS1_9allocatorIcEEEE
_ZN7Iex_3_015EafnosupportExcC2EOS0_
_ZN7Iex_3_015EafnosupportExcC2EPKc
_ZN7Iex_3_015EafnosupportExcC2ERKNSt3__112basic_stringIcNS1_11char_traitsIcEENS1_9allocatorIcEEEE
_ZN7Iex_3_015EafnosupportExcC2ERKS0_
_ZN7Iex_3_015EafnosupportExcC2ERNSt3__118basic_stringstreamIcNS1_11char_traitsIcEENS1_9allocatorIcEEEE
_ZN7Iex_3_015EafnosupportExcC2Ev
_ZN7Iex_3_015EafnosupportExcD0Ev
_ZN7Iex_3_015EafnosupportExcD1Ev
_ZN7Iex_3_015EafnosupportExcD2Ev
_ZN7Iex_3_015EafnosupportExcaSEOS0_
_ZN7Iex_3_015EafnosupportExcaSERS0_
_ZN7Iex_3_015EconnabortedExcC1EONSt3__112basic_stringIcNS1_11char_traitsIcEENS1_9allocatorIcEEEE
_ZN7Iex_3_015EconnabortedExcC1EOS0_
_ZN7Iex_3_015EconnabortedExcC1EPKc
_ZN7Iex_3_015EconnabortedExcC1ERKNSt3__112basic_stringIcNS1_11char_traitsIcEENS1_9allocatorIcEEEE
_ZN7Iex_3_015EconnabortedExcC1ERKS0_
_ZN7Iex_3_015EconnabortedExcC1ERNSt3__118basic_stringstreamIcNS1_11char_traitsIcEENS1_9allocatorIcEEEE
_ZN7Iex_3_015EconnabortedExcC1Ev
_ZN7Iex_3_015EconnabortedExcC2EONSt3__112basic_stringIcNS1_11char_traitsIcEENS1_9allocatorIcEEEE
_ZN7Iex_3_015EconnabortedExcC2EOS0_
_ZN7Iex_3_015EconnabortedExcC2EPKc
_ZN7Iex_3_015EconnabortedExcC2ERKNSt3__112basic_stringIcNS1_11char_traitsIcEENS1_9allocatorIcEEEE
_ZN7Iex_3_015EconnabortedExcC2ERKS0_
_ZN7Iex_3_015EconnabortedExcC2ERNSt3__118basic_stringstreamIcNS1_11char_traitsIcEENS1_9allocatorIcEEEE
_ZN7Iex_3_015EconnabortedExcC2Ev
_ZN7Iex_3_015EconnabortedExcD0Ev
_ZN7Iex_3_015EconnabortedExcD1Ev
_ZN7Iex_3_015EconnabortedExcD2Ev
_ZN7Iex_3_015EconnabortedExcaSEOS0_
_ZN7Iex_3_015EconnabortedExcaSERS0_
_ZN7Iex_3_015EconnrefusedExcC1EONSt3__112basic_stringIcNS1_11char_traitsIcEENS1_9allocatorIcEEEE
_ZN7Iex_3_015EconnrefusedExcC1EOS0_
_ZN7Iex_3_015EconnrefusedExcC1EPKc
_ZN7Iex_3_015EconnrefusedExcC1ERKNSt3__112basic_stringIcNS1_11char_traitsIcEENS1_9allocatorIcEEEE
_ZN7Iex_3_015EconnrefusedExcC1ERKS0_
_ZN7Iex_3_015EconnrefusedExcC1ERNSt3__118basic_stringstreamIcNS1_11char_traitsIcEENS1_9allocatorIcEEEE
_ZN7Iex_3_015EconnrefusedExcC1Ev
_ZN7Iex_3_015EconnrefusedExcC2EONSt3__112basic_stringIcNS1_11char_traitsIcEENS1_9allocatorIcEEEE
_ZN7Iex_3_015EconnrefusedExcC2EOS0_
_ZN7Iex_3_015EconnrefusedExcC2EPKc
_ZN7Iex_3_015EconnrefusedExcC2ERKNSt3__112basic_stringIcNS1_11char_traitsIcEENS1_9allocatorIcEEEE
_ZN7Iex_3_015EconnrefusedExcC2ERKS0_
_ZN7Iex_3_015EconnrefusedExcC2ERNSt3__118basic_stringstreamIcNS1_11char_traitsIcEENS1_9allocatorIcEEEE
_ZN7Iex_3_015EconnrefusedExcC2Ev
_ZN7Iex_3_015EconnrefusedExcD0Ev
_ZN7Iex_3_015EconnrefusedExcD1Ev
_ZN7Iex_3_015EconnrefusedExcD2Ev
_ZN7Iex_3_015EconnrefusedExcaSEOS0_
_ZN7Iex_3_015EconnrefusedExcaSERS0_
_ZN7Iex_3_015EdestaddrreqExcC1EONSt3__112basic_stringIcNS1_11char_traitsIcEENS1_9allocatorIcEEEE
_ZN7Iex_3_015EdestaddrreqExcC1EOS0_
_ZN7Iex_3_015EdestaddrreqExcC1EPKc
_ZN7Iex_3_015EdestaddrreqExcC1ERKNSt3__112basic_stringIcNS1_11char_traitsIcEENS1_9allocatorIcEEEE
_ZN7Iex_3_015EdestaddrreqExcC1ERKS0_
_ZN7Iex_3_015EdestaddrreqExcC1ERNSt3__118basic_stringstreamIcNS1_11char_traitsIcEENS1_9allocatorIcEEEE
_ZN7Iex_3_015EdestaddrreqExcC1Ev
_ZN7Iex_3_015EdestaddrreqExcC2EONSt3__112basic_stringIcNS1_11char_traitsIcEENS1_9allocatorIcEEEE
_ZN7Iex_3_015EdestaddrreqExcC2EOS0_
_ZN7Iex_3_015EdestaddrreqExcC2EPKc
_ZN7Iex_3_015EdestaddrreqExcC2ERKNSt3__112basic_stringIcNS1_11char_traitsIcEENS1_9allocatorIcEEEE
_ZN7Iex_3_015EdestaddrreqExcC2ERKS0_
_ZN7Iex_3_015EdestaddrreqExcC2ERNSt3__118basic_stringstreamIcNS1_11char_traitsIcEENS1_9allocatorIcEEEE
_ZN7Iex_3_015EdestaddrreqExcC2Ev
_ZN7Iex_3_015EdestaddrreqExcD0Ev
_ZN7Iex_3_015EdestaddrreqExcD1Ev
_ZN7Iex_3_015EdestaddrreqExcD2Ev
_ZN7Iex_3_015EdestaddrreqExcaSEOS0_
_ZN7Iex_3_015EdestaddrreqExcaSERS0_
_ZN7Iex_3_015EhostunreachExcC1EONSt3__112basic_stringIcNS1_11char_traitsIcEENS1_9allocatorIcEEEE
_ZN7Iex_3_015EhostunreachExcC1EOS0_
_ZN7Iex_3_015EhostunreachExcC1EPKc
_ZN7Iex_3_015EhostunreachExcC1ERKNSt3__112basic_stringIcNS1_11char_traitsIcEENS1_9allocatorIcEEEE
_ZN7Iex_3_015EhostunreachExcC1ERKS0_
_ZN7Iex_3_015EhostunreachExcC1ERNSt3__118basic_stringstreamIcNS1_11char_traitsIcEENS1_9allocatorIcEEEE
_ZN7Iex_3_015EhostunreachExcC1Ev
_ZN7Iex_3_015EhostunreachExcC2EONSt3__112basic_stringIcNS1_11char_traitsIcEENS1_9allocatorIcEEEE
_ZN7Iex_3_015EhostunreachExcC2EOS0_
_ZN7Iex_3_015EhostunreachExcC2EPKc
_ZN7Iex_3_015EhostunreachExcC2ERKNSt3__112basic_stringIcNS1_11char_traitsIcEENS1_9allocatorIcEEEE
_ZN7Iex_3_015EhostunreachExcC2ERKS0_
_ZN7Iex_3_015EhostunreachExcC2ERNSt3__118basic_stringstreamIcNS1_11char_traitsIcEENS1_9allocatorIcEEEE
_ZN7Iex_3_015EhostunreachExcC2Ev
_ZN7Iex_3_015EhostunreachExcD0Ev
_ZN7Iex_3_015EhostunreachExcD1Ev
_ZN7Iex_3_015EhostunreachExcD2Ev
_ZN7Iex_3_015EhostunreachExcaSEOS0_
_ZN7Iex_3_015EhostunreachExcaSERS0_
_ZN7Iex_3_015EnametoolongExcC1EONSt3__112basic_stringIcNS1_11char_traitsIcEENS1_9allocatorIcEEEE
_ZN7Iex_3_015EnametoolongExcC1EOS0_
_ZN7Iex_3_015EnametoolongExcC1EPKc
_ZN7Iex_3_015EnametoolongExcC1ERKNSt3__112basic_stringIcNS1_11char_traitsIcEENS1_9allocatorIcEEEE
_ZN7Iex_3_015EnametoolongExcC1ERKS0_
_ZN7Iex_3_015EnametoolongExcC1ERNSt3__118basic_stringstreamIcNS1_11char_traitsIcEENS1_9allocatorIcEEEE
_ZN7Iex_3_015EnametoolongExcC1Ev
_ZN7Iex_3_015EnametoolongExcC2EONSt3__112basic_stringIcNS1_11char_traitsIcEENS1_9allocatorIcEEEE
_ZN7Iex_3_015EnametoolongExcC2EOS0_
_ZN7Iex_3_015EnametoolongExcC2EPKc
_ZN7Iex_3_015EnametoolongExcC2ERKNSt3__112basic_stringIcNS1_11char_traitsIcEENS1_9allocatorIcEEEE
_ZN7Iex_3_015EnametoolongExcC2ERKS0_
_ZN7Iex_3_015EnametoolongExcC2ERNSt3__118basic_stringstreamIcNS1_11char_traitsIcEENS1_9allocatorIcEEEE
_ZN7Iex_3_015EnametoolongExcC2Ev
_ZN7Iex_3_015EnametoolongExcD0Ev
_ZN7Iex_3_015EnametoolongExcD1Ev
_ZN7Iex_3_015EnametoolongExcD2Ev
_ZN7Iex_3_015EnametoolongExcaSEOS0_
_ZN7Iex_3_015EnametoolongExcaSERS0_
_ZN7Iex_3_015EnointrgroupExcC1EONSt3__112basic_stringIcNS1_11char_traitsIcEENS1_9allocatorIcEEEE
_ZN7Iex_3_015EnointrgroupExcC1EOS0_
_ZN7Iex_3_015EnointrgroupExcC1EPKc
_ZN7Iex_3_015EnointrgroupExcC1ERKNSt3__112basic_stringIcNS1_11char_traitsIcEENS1_9allocatorIcEEEE
_ZN7Iex_3_015EnointrgroupExcC1ERKS0_
_ZN7Iex_3_015EnointrgroupExcC1ERNSt3__118basic_stringstreamIcNS1_11char_traitsIcEENS1_9allocatorIcEEEE
_ZN7Iex_3_015EnointrgroupExcC1Ev
_ZN7Iex_3_015EnointrgroupExcC2EONSt3__112basic_stringIcNS1_11char_traitsIcEENS1_9allocatorIcEEEE
_ZN7Iex_3_015EnointrgroupExcC2EOS0_
_ZN7Iex_3_015EnointrgroupExcC2EPKc
_ZN7Iex_3_015EnointrgroupExcC2ERKNSt3__112basic_stringIcNS1_11char_traitsIcEENS1_9allocatorIcEEEE
_ZN7Iex_3_015EnointrgroupExcC2ERKS0_
_ZN7Iex_3_015EnointrgroupExcC2ERNSt3__118basic_stringstreamIcNS1_11char_traitsIcEENS1_9allocatorIcEEEE
_ZN7Iex_3_015EnointrgroupExcC2Ev
_ZN7Iex_3_015EnointrgroupExcD0Ev
_ZN7Iex_3_015EnointrgroupExcD1Ev
_ZN7Iex_3_015EnointrgroupExcD2Ev
_ZN7Iex_3_015EnointrgroupExcaSEOS0_
_ZN7Iex_3_015EnointrgroupExcaSERS0_
_ZN7Iex_3_015EnotenqueuedExcC1EONSt3__112basic_stringIcNS1_11char_traitsIcEENS1_9allocatorIcEEEE
_ZN7Iex_3_015EnotenqueuedExcC1EOS0_
_ZN7Iex_3_015EnotenqueuedExcC1EPKc
_ZN7Iex_3_015EnotenqueuedExcC1ERKNSt3__112basic_stringIcNS1_11char_traitsIcEENS1_9allocatorIcEEEE
_ZN7Iex_3_015EnotenqueuedExcC1ERKS0_
_ZN7Iex_3_015EnotenqueuedExcC1ERNSt3__118basic_stringstreamIcNS1_11char_traitsIcEENS1_9allocatorIcEEEE
_ZN7Iex_3_015EnotenqueuedExcC1Ev
_ZN7Iex_3_015EnotenqueuedExcC2EONSt3__112basic_stringIcNS1_11char_traitsIcEENS1_9allocatorIcEEEE
_ZN7Iex_3_015EnotenqueuedExcC2EOS0_
_ZN7Iex_3_015EnotenqueuedExcC2EPKc
_ZN7Iex_3_015EnotenqueuedExcC2ERKNSt3__112basic_stringIcNS1_11char_traitsIcEENS1_9allocatorIcEEEE
_ZN7Iex_3_015EnotenqueuedExcC2ERKS0_
_ZN7Iex_3_015EnotenqueuedExcC2ERNSt3__118basic_stringstreamIcNS1_11char_traitsIcEENS1_9allocatorIcEEEE
_ZN7Iex_3_015EnotenqueuedExcC2Ev
_ZN7Iex_3_015EnotenqueuedExcD0Ev
_ZN7Iex_3_015EnotenqueuedExcD1Ev
_ZN7Iex_3_015EnotenqueuedExcD2Ev
_ZN7Iex_3_015EnotenqueuedExcaSEOS0_
_ZN7Iex_3_015EnotenqueuedExcaSERS0_
_ZN7Iex_3_015EpfnosupportExcC1EONSt3__112basic_stringIcNS1_11char_traitsIcEENS1_9allocatorIcEEEE
_ZN7Iex_3_015EpfnosupportExcC1EOS0_
_ZN7Iex_3_015EpfnosupportExcC1EPKc
_ZN7Iex_3_015EpfnosupportExcC1ERKNSt3__112basic_stringIcNS1_11char_traitsIcEENS1_9allocatorIcEEEE
_ZN7Iex_3_015EpfnosupportExcC1ERKS0_
_ZN7Iex_3_015EpfnosupportExcC1ERNSt3__118basic_stringstreamIcNS1_11char_traitsIcEENS1_9allocatorIcEEEE
_ZN7Iex_3_015EpfnosupportExcC1Ev
_ZN7Iex_3_015EpfnosupportExcC2EONSt3__112basic_stringIcNS1_11char_traitsIcEENS1_9allocatorIcEEEE
_ZN7Iex_3_015EpfnosupportExcC2EOS0_
_ZN7Iex_3_015EpfnosupportExcC2EPKc
_ZN7Iex_3_015EpfnosupportExcC2ERKNSt3__112basic_stringIcNS1_11char_traitsIcEENS1_9allocatorIcEEEE
_ZN7Iex_3_015EpfnosupportExcC2ERKS0_
_ZN7Iex_3_015EpfnosupportExcC2ERNSt3__118basic_stringstreamIcNS1_11char_traitsIcEENS1_9allocatorIcEEEE
_ZN7Iex_3_015EpfnosupportExcC2Ev
_ZN7Iex_3_015EpfnosupportExcD0Ev
_ZN7Iex_3_015EpfnosupportExcD1Ev
_ZN7Iex_3_015EpfnosupportExcD2Ev
_ZN7Iex_3_015EpfnosupportExcaSEOS0_
_ZN7Iex_3_015EpfnosupportExcaSERS0_
_ZN7Iex_3_015EtoomanyrefsExcC1EONSt3__112basic_stringIcNS1_11char_traitsIcEENS1_9allocatorIcEEEE
_ZN7Iex_3_015EtoomanyrefsExcC1EOS0_
_ZN7Iex_3_015EtoomanyrefsExcC1EPKc
_ZN7Iex_3_015EtoomanyrefsExcC1ERKNSt3__112basic_stringIcNS1_11char_traitsIcEENS1_9allocatorIcEEEE
_ZN7Iex_3_015EtoomanyrefsExcC1ERKS0_
_ZN7Iex_3_015EtoomanyrefsExcC1ERNSt3__118basic_stringstreamIcNS1_11char_traitsIcEENS1_9allocatorIcEEEE
_ZN7Iex_3_015EtoomanyrefsExcC1Ev
_ZN7Iex_3_015EtoomanyrefsExcC2EONSt3__112basic_stringIcNS1_11char_traitsIcEENS1_9allocatorIcEEEE
_ZN7Iex_3_015EtoomanyrefsExcC2EOS0_
_ZN7Iex_3_015EtoomanyrefsExcC2EPKc
_ZN7Iex_3_015EtoomanyrefsExcC2ERKNSt3__112basic_stringIcNS1_11char_traitsIcEENS1_9allocatorIcEEEE
_ZN7Iex_3_015EtoomanyrefsExcC2ERKS0_
_ZN7Iex_3_015EtoomanyrefsExcC2ERNSt3__118basic_stringstreamIcNS1_11char_traitsIcEENS1_9allocatorIcEEEE
_ZN7Iex_3_015EtoomanyrefsExcC2Ev
_ZN7Iex_3_015EtoomanyrefsExcD0Ev
_ZN7Iex_3_015EtoomanyrefsExcD1Ev
_ZN7Iex_3_015EtoomanyrefsExcD2Ev
_ZN7Iex_3_015EtoomanyrefsExcaSEOS0_
_ZN7Iex_3_015EtoomanyrefsExcaSERS0_
_ZN7Iex_3_016EaddrnotavailExcC1EONSt3__112basic_stringIcNS1_11char_traitsIcEENS1_9allocatorIcEEEE
_ZN7Iex_3_016EaddrnotavailExcC1EOS0_
_ZN7Iex_3_016EaddrnotavailExcC1EPKc
_ZN7Iex_3_016EaddrnotavailExcC1ERKNSt3__112basic_stringIcNS1_11char_traitsIcEENS1_9allocatorIcEEEE
_ZN7Iex_3_016EaddrnotavailExcC1ERKS0_
_ZN7Iex_3_016EaddrnotavailExcC1ERNSt3__118basic_stringstreamIcNS1_11char_traitsIcEENS1_9allocatorIcEEEE
_ZN7Iex_3_016EaddrnotavailExcC1Ev
_ZN7Iex_3_016EaddrnotavailExcC2EONSt3__112basic_stringIcNS1_11char_traitsIcEENS1_9allocatorIcEEEE
_ZN7Iex_3_016EaddrnotavailExcC2EOS0_
_ZN7Iex_3_016EaddrnotavailExcC2EPKc
_ZN7Iex_3_016EaddrnotavailExcC2ERKNSt3__112basic_stringIcNS1_11char_traitsIcEENS1_9allocatorIcEEEE
_ZN7Iex_3_016EaddrnotavailExcC2ERKS0_
_ZN7Iex_3_016EaddrnotavailExcC2ERNSt3__118basic_stringstreamIcNS1_11char_traitsIcEENS1_9allocatorIcEEEE
_ZN7Iex_3_016EaddrnotavailExcC2Ev
_ZN7Iex_3_016EaddrnotavailExcD0Ev
_ZN7Iex_3_016EaddrnotavailExcD1Ev
_ZN7Iex_3_016EaddrnotavailExcD2Ev
_ZN7Iex_3_016EaddrnotavailExcaSEOS0_
_ZN7Iex_3_016EaddrnotavailExcaSERS0_
_ZN7Iex_3_016EdircorruptedExcC1EONSt3__112basic_stringIcNS1_11char_traitsIcEENS1_9allocatorIcEEEE
_ZN7Iex_3_016EdircorruptedExcC1EOS0_
_ZN7Iex_3_016EdircorruptedExcC1EPKc
_ZN7Iex_3_016EdircorruptedExcC1ERKNSt3__112basic_stringIcNS1_11char_traitsIcEENS1_9allocatorIcEEEE
_ZN7Iex_3_016EdircorruptedExcC1ERKS0_
_ZN7Iex_3_016EdircorruptedExcC1ERNSt3__118basic_stringstreamIcNS1_11char_traitsIcEENS1_9allocatorIcEEEE
_ZN7Iex_3_016EdircorruptedExcC1Ev
_ZN7Iex_3_016EdircorruptedExcC2EONSt3__112basic_stringIcNS1_11char_traitsIcEENS1_9allocatorIcEEEE
_ZN7Iex_3_016EdircorruptedExcC2EOS0_
_ZN7Iex_3_016EdircorruptedExcC2EPKc
_ZN7Iex_3_016EdircorruptedExcC2ERKNSt3__112basic_stringIcNS1_11char_traitsIcEENS1_9allocatorIcEEEE
_ZN7Iex_3_016EdircorruptedExcC2ERKS0_
_ZN7Iex_3_016EdircorruptedExcC2ERNSt3__118basic_stringstreamIcNS1_11char_traitsIcEENS1_9allocatorIcEEEE
_ZN7Iex_3_016EdircorruptedExcC2Ev
_ZN7Iex_3_016EdircorruptedExcD0Ev
_ZN7Iex_3_016EdircorruptedExcD1Ev
_ZN7Iex_3_016EdircorruptedExcD2Ev
_ZN7Iex_3_016EdircorruptedExcaSEOS0_
_ZN7Iex_3_016EdircorruptedExcaSERS0_
_ZN7Iex_3_017EnotcontrollerExcC1EONSt3__112basic_stringIcNS1_11char_traitsIcEENS1_9allocatorIcEEEE
_ZN7Iex_3_017EnotcontrollerExcC1EOS0_
_ZN7Iex_3_017EnotcontrollerExcC1EPKc
_ZN7Iex_3_017EnotcontrollerExcC1ERKNSt3__112basic_stringIcNS1_11char_traitsIcEENS1_9allocatorIcEEEE
_ZN7Iex_3_017EnotcontrollerExcC1ERKS0_
_ZN7Iex_3_017EnotcontrollerExcC1ERNSt3__118basic_stringstreamIcNS1_11char_traitsIcEENS1_9allocatorIcEEEE
_ZN7Iex_3_017EnotcontrollerExcC1Ev
_ZN7Iex_3_017EnotcontrollerExcC2EONSt3__112basic_stringIcNS1_11char_traitsIcEENS1_9allocatorIcEEEE
_ZN7Iex_3_017EnotcontrollerExcC2EOS0_
_ZN7Iex_3_017EnotcontrollerExcC2EPKc
_ZN7Iex_3_017EnotcontrollerExcC2ERKNSt3__112basic_stringIcNS1_11char_traitsIcEENS1_9allocatorIcEEEE
_ZN7Iex_3_017EnotcontrollerExcC2ERKS0_
_ZN7Iex_3_017EnotcontrollerExcC2ERNSt3__118basic_stringstreamIcNS1_11char_traitsIcEENS1_9allocatorIcEEEE
_ZN7Iex_3_017EnotcontrollerExcC2Ev
_ZN7Iex_3_017EnotcontrollerExcD0Ev
_ZN7Iex_3_017EnotcontrollerExcD1Ev
_ZN7Iex_3_017EnotcontrollerExcD2Ev
_ZN7Iex_3_017EnotcontrollerExcaSEOS0_
_ZN7Iex_3_017EnotcontrollerExcaSERS0_
_ZN7Iex_3_018EprotonosupportExcC1EONSt3__112basic_stringIcNS1_11char_traitsIcEENS1_9allocatorIcEEEE
_ZN7Iex_3_018EprotonosupportExcC1EOS0_
_ZN7Iex_3_018EprotonosupportExcC1EPKc
_ZN7Iex_3_018EprotonosupportExcC1ERKNSt3__112basic_stringIcNS1_11char_traitsIcEENS1_9allocatorIcEEEE
_ZN7Iex_3_018EprotonosupportExcC1ERKS0_
_ZN7Iex_3_018EprotonosupportExcC1ERNSt3__118basic_stringstreamIcNS1_11char_traitsIcEENS1_9allocatorIcEEEE
_ZN7Iex_3_018EprotonosupportExcC1Ev
_ZN7Iex_3_018EprotonosupportExcC2EONSt3__112basic_stringIcNS1_11char_traitsIcEENS1_9allocatorIcEEEE
_ZN7Iex_3_018EprotonosupportExcC2EOS0_
_ZN7Iex_3_018EprotonosupportExcC2EPKc
_ZN7Iex_3_018EprotonosupportExcC2ERKNSt3__112basic_stringIcNS1_11char_traitsIcEENS1_9allocatorIcEEEE
_ZN7Iex_3_018EprotonosupportExcC2ERKS0_
_ZN7Iex_3_018EprotonosupportExcC2ERNSt3__118basic_stringstreamIcNS1_11char_traitsIcEENS1_9allocatorIcEEEE
_ZN7Iex_3_018EprotonosupportExcC2Ev
_ZN7Iex_3_018EprotonosupportExcD0Ev
_ZN7Iex_3_018EprotonosupportExcD1Ev
_ZN7Iex_3_018EprotonosupportExcD2Ev
_ZN7Iex_3_018EprotonosupportExcaSEOS0_
_ZN7Iex_3_018EprotonosupportExcaSERS0_
_ZN7Iex_3_018EsocktnosupportExcC1EONSt3__112basic_stringIcNS1_11char_traitsIcEENS1_9allocatorIcEEEE
_ZN7Iex_3_018EsocktnosupportExcC1EOS0_
_ZN7Iex_3_018EsocktnosupportExcC1EPKc
_ZN7Iex_3_018EsocktnosupportExcC1ERKNSt3__112basic_stringIcNS1_11char_traitsIcEENS1_9allocatorIcEEEE
_ZN7Iex_3_018EsocktnosupportExcC1ERKS0_
_ZN7Iex_3_018EsocktnosupportExcC1ERNSt3__118basic_stringstreamIcNS1_11char_traitsIcEENS1_9allocatorIcEEEE
_ZN7Iex_3_018EsocktnosupportExcC1Ev
_ZN7Iex_3_018EsocktnosupportExcC2EONSt3__112basic_stringIcNS1_11char_traitsIcEENS1_9allocatorIcEEEE
_ZN7Iex_3_018EsocktnosupportExcC2EOS0_
_ZN7Iex_3_018EsocktnosupportExcC2EPKc
_ZN7Iex_3_018EsocktnosupportExcC2ERKNSt3__112basic_stringIcNS1_11char_traitsIcEENS1_9allocatorIcEEEE
_ZN7Iex_3_018EsocktnosupportExcC2ERKS0_
_ZN7Iex_3_018EsocktnosupportExcC2ERNSt3__118basic_stringstreamIcNS1_11char_traitsIcEENS1_9allocatorIcEEEE
_ZN7Iex_3_018EsocktnosupportExcC2Ev
_ZN7Iex_3_018EsocktnosupportExcD0Ev
_ZN7Iex_3_018EsocktnosupportExcD1Ev
_ZN7Iex_3_018EsocktnosupportExcD2Ev
_ZN7Iex_3_018EsocktnosupportExcaSEOS0_
_ZN7Iex_3_018EsocktnosupportExcaSERS0_
_ZN7Iex_3_05IoExcC1EONSt3__112basic_stringIcNS1_11char_traitsIcEENS1_9allocatorIcEEEE
_ZN7Iex_3_05IoExcC1EOS0_
_ZN7Iex_3_05IoExcC1EPKc
_ZN7Iex_3_05IoExcC1ERKNSt3__112basic_stringIcNS1_11char_traitsIcEENS1_9allocatorIcEEEE
_ZN7Iex_3_05IoExcC1ERKS0_
_ZN7Iex_3_05IoExcC1ERNSt3__118basic_stringstreamIcNS1_11char_traitsIcEENS1_9allocatorIcEEEE
_ZN7Iex_3_05IoExcC1Ev
_ZN7Iex_3_05IoExcC2EONSt3__112basic_stringIcNS1_11char_traitsIcEENS1_9allocatorIcEEEE
_ZN7Iex_3_05IoExcC2EOS0_
_ZN7Iex_3_05IoExcC2EPKc
_ZN7Iex_3_05IoExcC2ERKNSt3__112basic_stringIcNS1_11char_traitsIcEENS1_9allocatorIcEEEE
_ZN7Iex_3_05IoExcC2ERKS0_
_ZN7Iex_3_05IoExcC2ERNSt3__118basic_stringstreamIcNS1_11char_traitsIcEENS1_9allocatorIcEEEE
_ZN7Iex_3_05IoExcC2Ev
_ZN7Iex_3_05IoExcD0Ev
_ZN7Iex_3_05IoExcD1Ev
_ZN7Iex_3_05IoExcD2Ev
_ZN7Iex_3_05IoExcaSEOS0_
_ZN7Iex_3_05IoExcaSERS0_
_ZN7Iex_3_06ArgExcC1EONSt3__112basic_stringIcNS1_11char_traitsIcEENS1_9allocatorIcEEEE
_ZN7Iex_3_06ArgExcC1EOS0_
_ZN7Iex_3_06ArgExcC1EPKc
_ZN7Iex_3_06ArgExcC1ERKNSt3__112basic_stringIcNS1_11char_traitsIcEENS1_9allocatorIcEEEE
_ZN7Iex_3_06ArgExcC1ERKS0_
_ZN7Iex_3_06ArgExcC1ERNSt3__118basic_stringstreamIcNS1_11char_traitsIcEENS1_9allocatorIcEEEE
_ZN7Iex_3_06ArgExcC1Ev
_ZN7Iex_3_06ArgExcC2EONSt3__112basic_stringIcNS1_11char_traitsIcEENS1_9allocatorIcEEEE
_ZN7Iex_3_06ArgExcC2EOS0_
_ZN7Iex_3_06ArgExcC2EPKc
_ZN7Iex_3_06ArgExcC2ERKNSt3__112basic_stringIcNS1_11char_traitsIcEENS1_9allocatorIcEEEE
_ZN7Iex_3_06ArgExcC2ERKS0_
_ZN7Iex_3_06ArgExcC2ERNSt3__118basic_stringstreamIcNS1_11char_traitsIcEENS1_9allocatorIcEEEE
_ZN7Iex_3_06ArgExcC2Ev
_ZN7Iex_3_06ArgExcD0Ev
_ZN7Iex_3_06ArgExcD1Ev
_ZN7Iex_3_06ArgExcD2Ev
_ZN7Iex_3_06ArgExcaSEOS0_
_ZN7Iex_3_06ArgExcaSERS0_
_ZN7Iex_3_06EioExcC1EONSt3__112basic_stringIcNS1_11char_traitsIcEENS1_9allocatorIcEEEE
_ZN7Iex_3_06EioExcC1EOS0_
_ZN7Iex_3_06EioExcC1EPKc
_ZN7Iex_3_06EioExcC1ERKNSt3__112basic_stringIcNS1_11char_traitsIcEENS1_9allocatorIcEEEE
_ZN7Iex_3_06EioExcC1ERKS0_
_ZN7Iex_3_06EioExcC1ERNSt3__118basic_stringstreamIcNS1_11char_traitsIcEENS1_9allocatorIcEEEE
_ZN7Iex_3_06EioExcC1Ev
_ZN7Iex_3_06EioExcC2EONSt3__112basic_stringIcNS1_11char_traitsIcEENS1_9allocatorIcEEEE
_ZN7Iex_3_06EioExcC2EOS0_
_ZN7Iex_3_06EioExcC2EPKc
_ZN7Iex_3_06EioExcC2ERKNSt3__112basic_stringIcNS1_11char_traitsIcEENS1_9allocatorIcEEEE
_ZN7Iex_3_06EioExcC2ERKS0_
_ZN7Iex_3_06EioExcC2ERNSt3__118basic_stringstreamIcNS1_11char_traitsIcEENS1_9allocatorIcEEEE
_ZN7Iex_3_06EioExcC2Ev
_ZN7Iex_3_06EioExcD0Ev
_ZN7Iex_3_06EioExcD1Ev
_ZN7Iex_3_06EioExcD2Ev
_ZN7Iex_3_06EioExcaSEOS0_
_ZN7Iex_3_06EioExcaSERS0_
_ZN7Iex_3_07BaseExc6appendEPKc
_ZN7Iex_3_07BaseExc6appendERNSt3__118basic_stringstreamIcNS1_11char_traitsIcEENS1_9allocatorIcEEEE
_ZN7Iex_3_07BaseExc6assignEPKc
_ZN7Iex_3_07BaseExc6assignERNSt3__118basic_stringstreamIcNS1_11char_traitsIcEENS1_9allocatorIcEEEE
_ZN7Iex_3_07BaseExcC1EONSt3__112basic_stringIcNS1_11char_traitsIcEENS1_9allocatorIcEEEE
_ZN7Iex_3_07BaseExcC1EPKc
_ZN7Iex_3_07BaseExcC1ERKNSt3__112basic_stringIcNS1_11char_traitsIcEENS1_9allocatorIcEEEE
_ZN7Iex_3_07BaseExcC1ERKS0_
_ZN7Iex_3_07BaseExcC1ERNSt3__118basic_stringstreamIcNS1_11char_traitsIcEENS1_9allocatorIcEEEE
_ZN7Iex_3_07BaseExcC2EONSt3__112basic_stringIcNS1_11char_traitsIcEENS1_9allocatorIcEEEE
_ZN7Iex_3_07BaseExcC2EPKc
_ZN7Iex_3_07BaseExcC2ERKNSt3__112basic_stringIcNS1_11char_traitsIcEENS1_9allocatorIcEEEE
_ZN7Iex_3_07BaseExcC2ERKS0_
_ZN7Iex_3_07BaseExcC2ERNSt3__118basic_stringstreamIcNS1_11char_traitsIcEENS1_9allocatorIcEEEE
_ZN7Iex_3_07BaseExcD0Ev
_ZN7Iex_3_07BaseExcD1Ev
_ZN7Iex_3_07BaseExcD2Ev
_ZN7Iex_3_07BaseExcaSEOS0_
_ZN7Iex_3_07BaseExcaSEPKc
_ZN7Iex_3_07BaseExcaSERKS0_
_ZN7Iex_3_07BaseExcaSERNSt3__118basic_stringstreamIcNS1_11char_traitsIcEENS1_9allocatorIcEEEE
_ZN7Iex_3_07BaseExcpLEPKc
_ZN7Iex_3_07BaseExcpLERNSt3__118basic_stringstreamIcNS1_11char_traitsIcEENS1_9allocatorIcEEEE
_ZN7Iex_3_07EadvExcC1EONSt3__112basic_stringIcNS1_11char_traitsIcEENS1_9allocatorIcEEEE
_ZN7Iex_3_07EadvExcC1EOS0_
_ZN7Iex_3_07EadvExcC1EPKc
_ZN7Iex_3_07EadvExcC1ERKNSt3__112basic_stringIcNS1_11char_traitsIcEENS1_9allocatorIcEEEE
_ZN7Iex_3_07EadvExcC1ERKS0_
_ZN7Iex_3_07EadvExcC1ERNSt3__118basic_stringstreamIcNS1_11char_traitsIcEENS1_9allocatorIcEEEE
_ZN7Iex_3_07EadvExcC1Ev
_ZN7Iex_3_07EadvExcC2EONSt3__112basic_stringIcNS1_11char_traitsIcEENS1_9allocatorIcEEEE
_ZN7Iex_3_07EadvExcC2EOS0_
_ZN7Iex_3_07EadvExcC2EPKc
_ZN7Iex_3_07EadvExcC2ERKNSt3__112basic_stringIcNS1_11char_traitsIcEENS1_9allocatorIcEEEE
_ZN7Iex_3_07EadvExcC2ERKS0_
_ZN7Iex_3_07EadvExcC2ERNSt3__118basic_stringstreamIcNS1_11char_traitsIcEENS1_9allocatorIcEEEE
_ZN7Iex_3_07EadvExcC2Ev
_ZN7Iex_3_07EadvExcD0Ev
_ZN7Iex_3_07EadvExcD1Ev
_ZN7Iex_3_07EadvExcD2Ev
_ZN7Iex_3_07EadvExcaSEOS0_
_ZN7Iex_3_07EadvExcaSERS0_
_ZN7Iex_3_07EdomExcC1EONSt3__112basic_stringIcNS1_11char_traitsIcEENS1_9allocatorIcEEEE
_ZN7Iex_3_07EdomExcC1EOS0_
_ZN7Iex_3_07EdomExcC1EPKc
_ZN7Iex_3_07EdomExcC1ERKNSt3__112basic_stringIcNS1_11char_traitsIcEENS1_9allocatorIcEEEE
_ZN7Iex_3_07EdomExcC1ERKS0_
_ZN7Iex_3_07EdomExcC1ERNSt3__118basic_stringstreamIcNS1_11char_traitsIcEENS1_9allocatorIcEEEE
_ZN7Iex_3_07EdomExcC1Ev
_ZN7Iex_3_07EdomExcC2EONSt3__112basic_stringIcNS1_11char_traitsIcEENS1_9allocatorIcEEEE
_ZN7Iex_3_07EdomExcC2EOS0_
_ZN7Iex_3_07EdomExcC2EPKc
_ZN7Iex_3_07EdomExcC2ERKNSt3__112basic_stringIcNS1_11char_traitsIcEENS1_9allocatorIcEEEE
_ZN7Iex_3_07EdomExcC2ERKS0_
_ZN7Iex_3_07EdomExcC2ERNSt3__118basic_stringstreamIcNS1_11char_traitsIcEENS1_9allocatorIcEEEE
_ZN7Iex_3_07EdomExcC2Ev
_ZN7Iex_3_07EdomExcD0Ev
_ZN7Iex_3_07EdomExcD1Ev
_ZN7Iex_3_07EdomExcD2Ev
_ZN7Iex_3_07EdomExcaSEOS0_
_ZN7Iex_3_07EdomExcaSERS0_
_ZN7Iex_3_07MathExcC1EONSt3__112basic_stringIcNS1_11char_traitsIcEENS1_9allocatorIcEEEE
_ZN7Iex_3_07MathExcC1EOS0_
_ZN7Iex_3_07MathExcC1EPKc
_ZN7Iex_3_07MathExcC1ERKNSt3__112basic_stringIcNS1_11char_traitsIcEENS1_9allocatorIcEEEE
_ZN7Iex_3_07MathExcC1ERKS0_
_ZN7Iex_3_07MathExcC1ERNSt3__118basic_stringstreamIcNS1_11char_traitsIcEENS1_9allocatorIcEEEE
_ZN7Iex_3_07MathExcC1Ev
_ZN7Iex_3_07MathExcC2EONSt3__112basic_stringIcNS1_11char_traitsIcEENS1_9allocatorIcEEEE
_ZN7Iex_3_07MathExcC2EOS0_
_ZN7Iex_3_07MathExcC2EPKc
_ZN7Iex_3_07MathExcC2ERKNSt3__112basic_stringIcNS1_11char_traitsIcEENS1_9allocatorIcEEEE
_ZN7Iex_3_07MathExcC2ERKS0_
_ZN7Iex_3_07MathExcC2ERNSt3__118basic_stringstreamIcNS1_11char_traitsIcEENS1_9allocatorIcEEEE
_ZN7Iex_3_07MathExcC2Ev
_ZN7Iex_3_07MathExcD0Ev
_ZN7Iex_3_07MathExcD1Ev
_ZN7Iex_3_07MathExcD2Ev
_ZN7Iex_3_07MathExcaSEOS0_
_ZN7Iex_3_07MathExcaSERS0_
_ZN7Iex_3_07NullExcC1EONSt3__112basic_stringIcNS1_11char_traitsIcEENS1_9allocatorIcEEEE
_ZN7Iex_3_07NullExcC1EOS0_
_ZN7Iex_3_07NullExcC1EPKc
_ZN7Iex_3_07NullExcC1ERKNSt3__112basic_stringIcNS1_11char_traitsIcEENS1_9allocatorIcEEEE
_ZN7Iex_3_07NullExcC1ERKS0_
_ZN7Iex_3_07NullExcC1ERNSt3__118basic_stringstreamIcNS1_11char_traitsIcEENS1_9allocatorIcEEEE
_ZN7Iex_3_07NullExcC1Ev
_ZN7Iex_3_07NullExcC2EONSt3__112basic_stringIcNS1_11char_traitsIcEENS1_9allocatorIcEEEE
_ZN7Iex_3_07NullExcC2EOS0_
_ZN7Iex_3_07NullExcC2EPKc
_ZN7Iex_3_07NullExcC2ERKNSt3__112basic_stringIcNS1_11char_traitsIcEENS1_9allocatorIcEEEE
_ZN7Iex_3_07NullExcC2ERKS0_
_ZN7Iex_3_07NullExcC2ERNSt3__118basic_stringstreamIcNS1_11char_traitsIcEENS1_9allocatorIcEEEE
_ZN7Iex_3_07NullExcC2Ev
_ZN7Iex_3_07NullExcD0Ev
_ZN7Iex_3_07NullExcD1Ev
_ZN7Iex_3_07NullExcD2Ev
_ZN7Iex_3_07NullExcaSEOS0_
_ZN7Iex_3_07NullExcaSERS0_
_ZN7Iex_3_07TypeExcC1EONSt3__112basic_stringIcNS1_11char_traitsIcEENS1_9allocatorIcEEEE
_ZN7Iex_3_07TypeExcC1EOS0_
_ZN7Iex_3_07TypeExcC1EPKc
_ZN7Iex_3_07TypeExcC1ERKNSt3__112basic_stringIcNS1_11char_traitsIcEENS1_9allocatorIcEEEE
_ZN7Iex_3_07TypeExcC1ERKS0_
_ZN7Iex_3_07TypeExcC1ERNSt3__118basic_stringstreamIcNS1_11char_traitsIcEENS1_9allocatorIcEEEE
_ZN7Iex_3_07TypeExcC1Ev
_ZN7Iex_3_07TypeExcC2EONSt3__112basic_stringIcNS1_11char_traitsIcEENS1_9allocatorIcEEEE
_ZN7Iex_3_07TypeExcC2EOS0_
_ZN7Iex_3_07TypeExcC2EPKc
_ZN7Iex_3_07TypeExcC2ERKNSt3__112basic_stringIcNS1_11char_traitsIcEENS1_9allocatorIcEEEE
_ZN7Iex_3_07TypeExcC2ERKS0_
_ZN7Iex_3_07TypeExcC2ERNSt3__118basic_stringstreamIcNS1_11char_traitsIcEENS1_9allocatorIcEEEE
_ZN7Iex_3_07TypeExcC2Ev
_ZN7Iex_3_07TypeExcD0Ev
_ZN7Iex_3_07TypeExcD1Ev
_ZN7Iex_3_07TypeExcD2Ev
_ZN7Iex_3_07TypeExcaSEOS0_
_ZN7Iex_3_07TypeExcaSERS0_
_ZN7Iex_3_08E2bigExcC1EONSt3__112basic_stringIcNS1_11char_traitsIcEENS1_9allocatorIcEEEE
_ZN7Iex_3_08E2bigExcC1EOS0_
_ZN7Iex_3_08E2bigExcC1EPKc
_ZN7Iex_3_08E2bigExcC1ERKNSt3__112basic_stringIcNS1_11char_traitsIcEENS1_9allocatorIcEEEE
_ZN7Iex_3_08E2bigExcC1ERKS0_
_ZN7Iex_3_08E2bigExcC1ERNSt3__118basic_stringstreamIcNS1_11char_traitsIcEENS1_9allocatorIcEEEE
_ZN7Iex_3_08E2bigExcC1Ev
_ZN7Iex_3_08E2bigExcC2EONSt3__112basic_stringIcNS1_11char_traitsIcEENS1_9allocatorIcEEEE
_ZN7Iex_3_08E2bigExcC2EOS0_
_ZN7Iex_3_08E2bigExcC2EPKc
_ZN7Iex_3_08E2bigExcC2ERKNSt3__112basic_stringIcNS1_11char_traitsIcEENS1_9allocatorIcEEEE
_ZN7Iex_3_08E2bigExcC2ERKS0_
_ZN7Iex_3_08E2bigExcC2ERNSt3__118basic_stringstreamIcNS1_11char_traitsIcEENS1_9allocatorIcEEEE
_ZN7Iex_3_08E2bigExcC2Ev
_ZN7Iex_3_08E2bigExcD0Ev
_ZN7Iex_3_08E2bigExcD1Ev
_ZN7Iex_3_08E2bigExcD2Ev
_ZN7Iex_3_08E2bigExcaSEOS0_
_ZN7Iex_3_08E2bigExcaSERS0_
_ZN7Iex_3_08EbadeExcC1EONSt3__112basic_stringIcNS1_11char_traitsIcEENS1_9allocatorIcEEEE
_ZN7Iex_3_08EbadeExcC1EOS0_
_ZN7Iex_3_08EbadeExcC1EPKc
_ZN7Iex_3_08EbadeExcC1ERKNSt3__112basic_stringIcNS1_11char_traitsIcEENS1_9allocatorIcEEEE
_ZN7Iex_3_08EbadeExcC1ERKS0_
_ZN7Iex_3_08EbadeExcC1ERNSt3__118basic_stringstreamIcNS1_11char_traitsIcEENS1_9allocatorIcEEEE
_ZN7Iex_3_08EbadeExcC1Ev
_ZN7Iex_3_08EbadeExcC2EONSt3__112basic_stringIcNS1_11char_traitsIcEENS1_9allocatorIcEEEE
_ZN7Iex_3_08EbadeExcC2EOS0_
_ZN7Iex_3_08EbadeExcC2EPKc
_ZN7Iex_3_08EbadeExcC2ERKNSt3__112basic_stringIcNS1_11char_traitsIcEENS1_9allocatorIcEEEE
_ZN7Iex_3_08EbadeExcC2ERKS0_
_ZN7Iex_3_08EbadeExcC2ERNSt3__118basic_stringstreamIcNS1_11char_traitsIcEENS1_9allocatorIcEEEE
_ZN7Iex_3_08EbadeExcC2Ev
_ZN7Iex_3_08EbadeExcD0Ev
_ZN7Iex_3_08EbadeExcD1Ev
_ZN7Iex_3_08EbadeExcD2Ev
_ZN7Iex_3_08EbadeExcaSEOS0_
_ZN7Iex_3_08EbadeExcaSERS0_
_ZN7Iex_3_08EbadfExcC1EONSt3__112basic_stringIcNS1_11char_traitsIcEENS1_9allocatorIcEEEE
_ZN7Iex_3_08EbadfExcC1EOS0_
_ZN7Iex_3_08EbadfExcC1EPKc
_ZN7Iex_3_08EbadfExcC1ERKNSt3__112basic_stringIcNS1_11char_traitsIcEENS1_9allocatorIcEEEE
_ZN7Iex_3_08EbadfExcC1ERKS0_
_ZN7Iex_3_08EbadfExcC1ERNSt3__118basic_stringstreamIcNS1_11char_traitsIcEENS1_9allocatorIcEEEE
_ZN7Iex_3_08EbadfExcC1Ev
_ZN7Iex_3_08EbadfExcC2EONSt3__112basic_stringIcNS1_11char_traitsIcEENS1_9allocatorIcEEEE
_ZN7Iex_3_08EbadfExcC2EOS0_
_ZN7Iex_3_08EbadfExcC2EPKc
_ZN7Iex_3_08EbadfExcC2ERKNSt3__112basic_stringIcNS1_11char_traitsIcEENS1_9allocatorIcEEEE
_ZN7Iex_3_08EbadfExcC2ERKS0_
_ZN7Iex_3_08EbadfExcC2ERNSt3__118basic_stringstreamIcNS1_11char_traitsIcEENS1_9allocatorIcEEEE
_ZN7Iex_3_08EbadfExcC2Ev
_ZN7Iex_3_08EbadfExcD0Ev
_ZN7Iex_3_08EbadfExcD1Ev
_ZN7Iex_3_08EbadfExcD2Ev
_ZN7Iex_3_08EbadfExcaSEOS0_
_ZN7Iex_3_08EbadfExcaSERS0_
_ZN7Iex_3_08EbadrExcC1EONSt3__112basic_stringIcNS1_11char_traitsIcEENS1_9allocatorIcEEEE
_ZN7Iex_3_08EbadrExcC1EOS0_
_ZN7Iex_3_08EbadrExcC1EPKc
_ZN7Iex_3_08EbadrExcC1ERKNSt3__112basic_stringIcNS1_11char_traitsIcEENS1_9allocatorIcEEEE
_ZN7Iex_3_08EbadrExcC1ERKS0_
_ZN7Iex_3_08EbadrExcC1ERNSt3__118basic_stringstreamIcNS1_11char_traitsIcEENS1_9allocatorIcEEEE
_ZN7Iex_3_08EbadrExcC1Ev
_ZN7Iex_3_08EbadrExcC2EONSt3__112basic_stringIcNS1_11char_traitsIcEENS1_9allocatorIcEEEE
_ZN7Iex_3_08EbadrExcC2EOS0_
_ZN7Iex_3_08EbadrExcC2EPKc
_ZN7Iex_3_08EbadrExcC2ERKNSt3__112basic_stringIcNS1_11char_traitsIcEENS1_9allocatorIcEEEE
_ZN7Iex_3_08EbadrExcC2ERKS0_
_ZN7Iex_3_08EbadrExcC2ERNSt3__118basic_stringstreamIcNS1_11char_traitsIcEENS1_9allocatorIcEEEE
_ZN7Iex_3_08EbadrExcC2Ev
_ZN7Iex_3_08EbadrExcD0Ev
_ZN7Iex_3_08EbadrExcD1Ev
_ZN7Iex_3_08EbadrExcD2Ev
_ZN7Iex_3_08EbadrExcaSEOS0_
_ZN7Iex_3_08EbadrExcaSERS0_
_ZN7Iex_3_08EbusyExcC1EONSt3__112basic_stringIcNS1_11char_traitsIcEENS1_9allocatorIcEEEE
_ZN7Iex_3_08EbusyExcC1EOS0_
_ZN7Iex_3_08EbusyExcC1EPKc
_ZN7Iex_3_08EbusyExcC1ERKNSt3__112basic_stringIcNS1_11char_traitsIcEENS1_9allocatorIcEEEE
_ZN7Iex_3_08EbusyExcC1ERKS0_
_ZN7Iex_3_08EbusyExcC1ERNSt3__118basic_stringstreamIcNS1_11char_traitsIcEENS1_9allocatorIcEEEE
_ZN7Iex_3_08EbusyExcC1Ev
_ZN7Iex_3_08EbusyExcC2EONSt3__112basic_stringIcNS1_11char_traitsIcEENS1_9allocatorIcEEEE
_ZN7Iex_3_08EbusyExcC2EOS0_
_ZN7Iex_3_08EbusyExcC2EPKc
_ZN7Iex_3_08EbusyExcC2ERKNSt3__112basic_stringIcNS1_11char_traitsIcEENS1_9allocatorIcEEEE
_ZN7Iex_3_08EbusyExcC2ERKS0_
_ZN7Iex_3_08EbusyExcC2ERNSt3__118basic_stringstreamIcNS1_11char_traitsIcEENS1_9allocatorIcEEEE
_ZN7Iex_3_08EbusyExcC2Ev
_ZN7Iex_3_08EbusyExcD0Ev
_ZN7Iex_3_08EbusyExcD1Ev
_ZN7Iex_3_08EbusyExcD2Ev
_ZN7Iex_3_08EbusyExcaSEOS0_
_ZN7Iex_3_08EbusyExcaSERS0_
_ZN7Iex_3_08EcommExcC1EONSt3__112basic_stringIcNS1_11char_traitsIcEENS1_9allocatorIcEEEE
_ZN7Iex_3_08EcommExcC1EOS0_
_ZN7Iex_3_08EcommExcC1EPKc
_ZN7Iex_3_08EcommExcC1ERKNSt3__112basic_stringIcNS1_11char_traitsIcEENS1_9allocatorIcEEEE
_ZN7Iex_3_08EcommExcC1ERKS0_
_ZN7Iex_3_08EcommExcC1ERNSt3__118basic_stringstreamIcNS1_11char_traitsIcEENS1_9allocatorIcEEEE
_ZN7Iex_3_08EcommExcC1Ev
_ZN7Iex_3_08EcommExcC2EONSt3__112basic_stringIcNS1_11char_traitsIcEENS1_9allocatorIcEEEE
_ZN7Iex_3_08EcommExcC2EOS0_
_ZN7Iex_3_08EcommExcC2EPKc
_ZN7Iex_3_08EcommExcC2ERKNSt3__112basic_stringIcNS1_11char_traitsIcEENS1_9allocatorIcEEEE
_ZN7Iex_3_08EcommExcC2ERKS0_
_ZN7Iex_3_08EcommExcC2ERNSt3__118basic_stringstreamIcNS1_11char_traitsIcEENS1_9allocatorIcEEEE
_ZN7Iex_3_08EcommExcC2Ev
_ZN7Iex_3_08EcommExcD0Ev
_ZN7Iex_3_08EcommExcD1Ev
_ZN7Iex_3_08EcommExcD2Ev
_ZN7Iex_3_08EcommExcaSEOS0_
_ZN7Iex_3_08EcommExcaSERS0_
_ZN7Iex_3_08EfbigExcC1EONSt3__112basic_stringIcNS1_11char_traitsIcEENS1_9allocatorIcEEEE
_ZN7Iex_3_08EfbigExcC1EOS0_
_ZN7Iex_3_08EfbigExcC1EPKc
_ZN7Iex_3_08EfbigExcC1ERKNSt3__112basic_stringIcNS1_11char_traitsIcEENS1_9allocatorIcEEEE
_ZN7Iex_3_08EfbigExcC1ERKS0_
_ZN7Iex_3_08EfbigExcC1ERNSt3__118basic_stringstreamIcNS1_11char_traitsIcEENS1_9allocatorIcEEEE
_ZN7Iex_3_08EfbigExcC1Ev
_ZN7Iex_3_08EfbigExcC2EONSt3__112basic_stringIcNS1_11char_traitsIcEENS1_9allocatorIcEEEE
_ZN7Iex_3_08EfbigExcC2EOS0_
_ZN7Iex_3_08EfbigExcC2EPKc
_ZN7Iex_3_08EfbigExcC2ERKNSt3__112basic_stringIcNS1_11char_traitsIcEENS1_9allocatorIcEEEE
_ZN7Iex_3_08EfbigExcC2ERKS0_
_ZN7Iex_3_08EfbigExcC2ERNSt3__118basic_stringstreamIcNS1_11char_traitsIcEENS1_9allocatorIcEEEE
_ZN7Iex_3_08EfbigExcC2Ev
_ZN7Iex_3_08EfbigExcD0Ev
_ZN7Iex_3_08EfbigExcD1Ev
_ZN7Iex_3_08EfbigExcD2Ev
_ZN7Iex_3_08EfbigExcaSEOS0_
_ZN7Iex_3_08EfbigExcaSERS0_
_ZN7Iex_3_08EidrmExcC1EONSt3__112basic_stringIcNS1_11char_traitsIcEENS1_9allocatorIcEEEE
_ZN7Iex_3_08EidrmExcC1EOS0_
_ZN7Iex_3_08EidrmExcC1EPKc
_ZN7Iex_3_08EidrmExcC1ERKNSt3__112basic_stringIcNS1_11char_traitsIcEENS1_9allocatorIcEEEE
_ZN7Iex_3_08EidrmExcC1ERKS0_
_ZN7Iex_3_08EidrmExcC1ERNSt3__118basic_stringstreamIcNS1_11char_traitsIcEENS1_9allocatorIcEEEE
_ZN7Iex_3_08EidrmExcC1Ev
_ZN7Iex_3_08EidrmExcC2EONSt3__112basic_stringIcNS1_11char_traitsIcEENS1_9allocatorIcEEEE
_ZN7Iex_3_08EidrmExcC2EOS0_
_ZN7Iex_3_08EidrmExcC2EPKc
_ZN7Iex_3_08EidrmExcC2ERKNSt3__112basic_stringIcNS1_11char_traitsIcEENS1_9allocatorIcEEEE
_ZN7Iex_3_08EidrmExcC2ERKS0_
_ZN7Iex_3_08EidrmExcC2ERNSt3__118basic_stringstreamIcNS1_11char_traitsIcEENS1_9allocatorIcEEEE
_ZN7Iex_3_08EidrmExcC2Ev
_ZN7Iex_3_08EidrmExcD0Ev
_ZN7Iex_3_08EidrmExcD1Ev
_ZN7Iex_3_08EidrmExcD2Ev
_ZN7Iex_3_08EidrmExcaSEOS0_
_ZN7Iex_3_08EidrmExcaSERS0_
_ZN7Iex_3_08EinitExcC1EONSt3__112basic_stringIcNS1_11char_traitsIcEENS1_9allocatorIcEEEE
_ZN7Iex_3_08EinitExcC1EOS0_
_ZN7Iex_3_08EinitExcC1EPKc
_ZN7Iex_3_08EinitExcC1ERKNSt3__112basic_stringIcNS1_11char_traitsIcEENS1_9allocatorIcEEEE
_ZN7Iex_3_08EinitExcC1ERKS0_
_ZN7Iex_3_08EinitExcC1ERNSt3__118basic_stringstreamIcNS1_11char_traitsIcEENS1_9allocatorIcEEEE
_ZN7Iex_3_08EinitExcC1Ev
_ZN7Iex_3_08EinitExcC2EONSt3__112basic_stringIcNS1_11char_traitsIcEENS1_9allocatorIcEEEE
_ZN7Iex_3_08EinitExcC2EOS0_
_ZN7Iex_3_08EinitExcC2EPKc
_ZN7Iex_3_08EinitExcC2ERKNSt3__112basic_stringIcNS1_11char_traitsIcEENS1_9allocatorIcEEEE
_ZN7Iex_3_08EinitExcC2ERKS0_
_ZN7Iex_3_08EinitExcC2ERNSt3__118basic_stringstreamIcNS1_11char_traitsIcEENS1_9allocatorIcEEEE
_ZN7Iex_3_08EinitExcC2Ev
_ZN7Iex_3_08EinitExcD0Ev
_ZN7Iex_3_08EinitExcD1Ev
_ZN7Iex_3_08EinitExcD2Ev
_ZN7Iex_3_08EinitExcaSEOS0_
_ZN7Iex_3_08EinitExcaSERS0_
_ZN7Iex_3_08EintrExcC1EONSt3__112basic_stringIcNS1_11char_traitsIcEENS1_9allocatorIcEEEE
_ZN7Iex_3_08EintrExcC1EOS0_
_ZN7Iex_3_08EintrExcC1EPKc
_ZN7Iex_3_08EintrExcC1ERKNSt3__112basic_stringIcNS1_11char_traitsIcEENS1_9allocatorIcEEEE
_ZN7Iex_3_08EintrExcC1ERKS0_
_ZN7Iex_3_08EintrExcC1ERNSt3__118basic_stringstreamIcNS1_11char_traitsIcEENS1_9allocatorIcEEEE
_ZN7Iex_3_08EintrExcC1Ev
_ZN7Iex_3_08EintrExcC2EONSt3__112basic_stringIcNS1_11char_traitsIcEENS1_9allocatorIcEEEE
_ZN7Iex_3_08EintrExcC2EOS0_
_ZN7Iex_3_08EintrExcC2EPKc
_ZN7Iex_3_08EintrExcC2ERKNSt3__112basic_stringIcNS1_11char_traitsIcEENS1_9allocatorIcEEEE
_ZN7Iex_3_08EintrExcC2ERKS0_
_ZN7Iex_3_08EintrExcC2ERNSt3__118basic_stringstreamIcNS1_11char_traitsIcEENS1_9allocatorIcEEEE
_ZN7Iex_3_08EintrExcC2Ev
_ZN7Iex_3_08EintrExcD0Ev
_ZN7Iex_3_08EintrExcD1Ev
_ZN7Iex_3_08EintrExcD2Ev
_ZN7Iex_3_08EintrExcaSEOS0_
_ZN7Iex_3_08EintrExcaSERS0_
_ZN7Iex_3_08EloopExcC1EONSt3__112basic_stringIcNS1_11char_traitsIcEENS1_9allocatorIcEEEE
_ZN7Iex_3_08EloopExcC1EOS0_
_ZN7Iex_3_08EloopExcC1EPKc
_ZN7Iex_3_08EloopExcC1ERKNSt3__112basic_stringIcNS1_11char_traitsIcEENS1_9allocatorIcEEEE
_ZN7Iex_3_08EloopExcC1ERKS0_
_ZN7Iex_3_08EloopExcC1ERNSt3__118basic_stringstreamIcNS1_11char_traitsIcEENS1_9allocatorIcEEEE
_ZN7Iex_3_08EloopExcC1Ev
_ZN7Iex_3_08EloopExcC2EONSt3__112basic_stringIcNS1_11char_traitsIcEENS1_9allocatorIcEEEE
_ZN7Iex_3_08EloopExcC2EOS0_
_ZN7Iex_3_08EloopExcC2EPKc
_ZN7Iex_3_08EloopExcC2ERKNSt3__112basic_stringIcNS1_11char_traitsIcEENS1_9allocatorIcEEEE
_ZN7Iex_3_08EloopExcC2ERKS0_
_ZN7Iex_3_08EloopExcC2ERNSt3__118basic_stringstreamIcNS1_11char_traitsIcEENS1_9allocatorIcEEEE
_ZN7Iex_3_08EloopExcC2Ev
_ZN7Iex_3_08EloopExcD0Ev
_ZN7Iex_3_08EloopExcD1Ev
_ZN7Iex_3_08EloopExcD2Ev
_ZN7Iex_3_08EloopExcaSEOS0_
_ZN7Iex_3_08EloopExcaSERS0_
_ZN7Iex_3_08EnosrExcC1EONSt3__112basic_stringIcNS1_11char_traitsIcEENS1_9allocatorIcEEEE
_ZN7Iex_3_08EnosrExcC1EOS0_
_ZN7Iex_3_08EnosrExcC1EPKc
_ZN7Iex_3_08EnosrExcC1ERKNSt3__112basic_stringIcNS1_11char_traitsIcEENS1_9allocatorIcEEEE
_ZN7Iex_3_08EnosrExcC1ERKS0_
_ZN7Iex_3_08EnosrExcC1ERNSt3__118basic_stringstreamIcNS1_11char_traitsIcEENS1_9allocatorIcEEEE
_ZN7Iex_3_08EnosrExcC1Ev
_ZN7Iex_3_08EnosrExcC2EONSt3__112basic_stringIcNS1_11char_traitsIcEENS1_9allocatorIcEEEE
_ZN7Iex_3_08EnosrExcC2EOS0_
_ZN7Iex_3_08EnosrExcC2EPKc
_ZN7Iex_3_08EnosrExcC2ERKNSt3__112basic_stringIcNS1_11char_traitsIcEENS1_9allocatorIcEEEE
_ZN7Iex_3_08EnosrExcC2ERKS0_
_ZN7Iex_3_08EnosrExcC2ERNSt3__118basic_stringstreamIcNS1_11char_traitsIcEENS1_9allocatorIcEEEE
_ZN7Iex_3_08EnosrExcC2Ev
_ZN7Iex_3_08EnosrExcD0Ev
_ZN7Iex_3_08EnosrExcD1Ev
_ZN7Iex_3_08EnosrExcD2Ev
_ZN7Iex_3_08EnosrExcaSEOS0_
_ZN7Iex_3_08EnosrExcaSERS0_
_ZN7Iex_3_08EnxioExcC1EONSt3__112basic_stringIcNS1_11char_traitsIcEENS1_9allocatorIcEEEE
_ZN7Iex_3_08EnxioExcC1EOS0_
_ZN7Iex_3_08EnxioExcC1EPKc
_ZN7Iex_3_08EnxioExcC1ERKNSt3__112basic_stringIcNS1_11char_traitsIcEENS1_9allocatorIcEEEE
_ZN7Iex_3_08EnxioExcC1ERKS0_
_ZN7Iex_3_08EnxioExcC1ERNSt3__118basic_stringstreamIcNS1_11char_traitsIcEENS1_9allocatorIcEEEE
_ZN7Iex_3_08EnxioExcC1Ev
_ZN7Iex_3_08EnxioExcC2EONSt3__112basic_stringIcNS1_11char_traitsIcEENS1_9allocatorIcEEEE
_ZN7Iex_3_08EnxioExcC2EOS0_
_ZN7Iex_3_08EnxioExcC2EPKc
_ZN7Iex_3_08EnxioExcC2ERKNSt3__112basic_stringIcNS1_11char_traitsIcEENS1_9allocatorIcEEEE
_ZN7Iex_3_08EnxioExcC2ERKS0_
_ZN7Iex_3_08EnxioExcC2ERNSt3__118basic_stringstreamIcNS1_11char_traitsIcEENS1_9allocatorIcEEEE
_ZN7Iex_3_08EnxioExcC2Ev
_ZN7Iex_3_08EnxioExcD0Ev
_ZN7Iex_3_08EnxioExcD1Ev
_ZN7Iex_3_08EnxioExcD2Ev
_ZN7Iex_3_08EnxioExcaSEOS0_
_ZN7Iex_3_08EnxioExcaSERS0_
_ZN7Iex_3_08EpermExcC1EONSt3__112basic_stringIcNS1_11char_traitsIcEENS1_9allocatorIcEEEE
_ZN7Iex_3_08EpermExcC1EOS0_
_ZN7Iex_3_08EpermExcC1EPKc
_ZN7Iex_3_08EpermExcC1ERKNSt3__112basic_stringIcNS1_11char_traitsIcEENS1_9allocatorIcEEEE
_ZN7Iex_3_08EpermExcC1ERKS0_
_ZN7Iex_3_08EpermExcC1ERNSt3__118basic_stringstreamIcNS1_11char_traitsIcEENS1_9allocatorIcEEEE
_ZN7Iex_3_08EpermExcC1Ev
_ZN7Iex_3_08EpermExcC2EONSt3__112basic_stringIcNS1_11char_traitsIcEENS1_9allocatorIcEEEE
_ZN7Iex_3_08EpermExcC2EOS0_
_ZN7Iex_3_08EpermExcC2EPKc
_ZN7Iex_3_08EpermExcC2ERKNSt3__112basic_stringIcNS1_11char_traitsIcEENS1_9allocatorIcEEEE
_ZN7Iex_3_08EpermExcC2ERKS0_
_ZN7Iex_3_08EpermExcC2ERNSt3__118basic_stringstreamIcNS1_11char_traitsIcEENS1_9allocatorIcEEEE
_ZN7Iex_3_08EpermExcC2Ev
_ZN7Iex_3_08EpermExcD0Ev
_ZN7Iex_3_08EpermExcD1Ev
_ZN7Iex_3_08EpermExcD2Ev
_ZN7Iex_3_08EpermExcaSEOS0_
_ZN7Iex_3_08EpermExcaSERS0_
_ZN7Iex_3_08EpipeExcC1EONSt3__112basic_stringIcNS1_11char_traitsIcEENS1_9allocatorIcEEEE
_ZN7Iex_3_08EpipeExcC1EOS0_
_ZN7Iex_3_08EpipeExcC1EPKc
_ZN7Iex_3_08EpipeExcC1ERKNSt3__112basic_stringIcNS1_11char_traitsIcEENS1_9allocatorIcEEEE
_ZN7Iex_3_08EpipeExcC1ERKS0_
_ZN7Iex_3_08EpipeExcC1ERNSt3__118basic_stringstreamIcNS1_11char_traitsIcEENS1_9allocatorIcEEEE
_ZN7Iex_3_08EpipeExcC1Ev
_ZN7Iex_3_08EpipeExcC2EONSt3__112basic_stringIcNS1_11char_traitsIcEENS1_9allocatorIcEEEE
_ZN7Iex_3_08EpipeExcC2EOS0_
_ZN7Iex_3_08EpipeExcC2EPKc
_ZN7Iex_3_08EpipeExcC2ERKNSt3__112basic_stringIcNS1_11char_traitsIcEENS1_9allocatorIcEEEE
_ZN7Iex_3_08EpipeExcC2ERKS0_
_ZN7Iex_3_08EpipeExcC2ERNSt3__118basic_stringstreamIcNS1_11char_traitsIcEENS1_9allocatorIcEEEE
_ZN7Iex_3_08EpipeExcC2Ev
_ZN7Iex_3_08EpipeExcD0Ev
_ZN7Iex_3_08EpipeExcD1Ev
_ZN7Iex_3_08EpipeExcD2Ev
_ZN7Iex_3_08EpipeExcaSEOS0_
_ZN7Iex_3_08EpipeExcaSERS0_
_ZN7Iex_3_08ErofsExcC1EONSt3__112basic_stringIcNS1_11char_traitsIcEENS1_9allocatorIcEEEE
_ZN7Iex_3_08ErofsExcC1EOS0_
_ZN7Iex_3_08ErofsExcC1EPKc
_ZN7Iex_3_08ErofsExcC1ERKNSt3__112basic_stringIcNS1_11char_traitsIcEENS1_9allocatorIcEEEE
_ZN7Iex_3_08ErofsExcC1ERKS0_
_ZN7Iex_3_08ErofsExcC1ERNSt3__118basic_stringstreamIcNS1_11char_traitsIcEENS1_9allocatorIcEEEE
_ZN7Iex_3_08ErofsExcC1Ev
_ZN7Iex_3_08ErofsExcC2EONSt3__112basic_stringIcNS1_11char_traitsIcEENS1_9allocatorIcEEEE
_ZN7Iex_3_08ErofsExcC2EOS0_
_ZN7Iex_3_08ErofsExcC2EPKc
_ZN7Iex_3_08ErofsExcC2ERKNSt3__112basic_stringIcNS1_11char_traitsIcEENS1_9allocatorIcEEEE
_ZN7Iex_3_08ErofsExcC2ERKS0_
_ZN7Iex_3_08ErofsExcC2ERNSt3__118basic_stringstreamIcNS1_11char_traitsIcEENS1_9allocatorIcEEEE
_ZN7Iex_3_08ErofsExcC2Ev
_ZN7Iex_3_08ErofsExcD0Ev
_ZN7Iex_3_08ErofsExcD1Ev
_ZN7Iex_3_08ErofsExcD2Ev
_ZN7Iex_3_08ErofsExcaSEOS0_
_ZN7Iex_3_08ErofsExcaSERS0_
_ZN7Iex_3_08ErrnoExcC1EONSt3__112basic_stringIcNS1_11char_traitsIcEENS1_9allocatorIcEEEE
_ZN7Iex_3_08ErrnoExcC1EOS0_
_ZN7Iex_3_08ErrnoExcC1EPKc
_ZN7Iex_3_08ErrnoExcC1ERKNSt3__112basic_stringIcNS1_11char_traitsIcEENS1_9allocatorIcEEEE
_ZN7Iex_3_08ErrnoExcC1ERKS0_
_ZN7Iex_3_08ErrnoExcC1ERNSt3__118basic_stringstreamIcNS1_11char_traitsIcEENS1_9allocatorIcEEEE
_ZN7Iex_3_08ErrnoExcC1Ev
_ZN7Iex_3_08ErrnoExcC2EONSt3__112basic_stringIcNS1_11char_traitsIcEENS1_9allocatorIcEEEE
_ZN7Iex_3_08ErrnoExcC2EOS0_
_ZN7Iex_3_08ErrnoExcC2EPKc
_ZN7Iex_3_08ErrnoExcC2ERKNSt3__112basic_stringIcNS1_11char_traitsIcEENS1_9allocatorIcEEEE
_ZN7Iex_3_08ErrnoExcC2ERKS0_
_ZN7Iex_3_08ErrnoExcC2ERNSt3__118basic_stringstreamIcNS1_11char_traitsIcEENS1_9allocatorIcEEEE
_ZN7Iex_3_08ErrnoExcC2Ev
_ZN7Iex_3_08ErrnoExcD0Ev
_ZN7Iex_3_08ErrnoExcD1Ev
_ZN7Iex_3_08ErrnoExcD2Ev
_ZN7Iex_3_08ErrnoExcaSEOS0_
_ZN7Iex_3_08ErrnoExcaSERS0_
_ZN7Iex_3_08EsrchExcC1EONSt3__112basic_stringIcNS1_11char_traitsIcEENS1_9allocatorIcEEEE
_ZN7Iex_3_08EsrchExcC1EOS0_
_ZN7Iex_3_08EsrchExcC1EPKc
_ZN7Iex_3_08EsrchExcC1ERKNSt3__112basic_stringIcNS1_11char_traitsIcEENS1_9allocatorIcEEEE
_ZN7Iex_3_08EsrchExcC1ERKS0_
_ZN7Iex_3_08EsrchExcC1ERNSt3__118basic_stringstreamIcNS1_11char_traitsIcEENS1_9allocatorIcEEEE
_ZN7Iex_3_08EsrchExcC1Ev
_ZN7Iex_3_08EsrchExcC2EONSt3__112basic_stringIcNS1_11char_traitsIcEENS1_9allocatorIcEEEE
_ZN7Iex_3_08EsrchExcC2EOS0_
_ZN7Iex_3_08EsrchExcC2EPKc
_ZN7Iex_3_08EsrchExcC2ERKNSt3__112basic_stringIcNS1_11char_traitsIcEENS1_9allocatorIcEEEE
_ZN7Iex_3_08EsrchExcC2ERKS0_
_ZN7Iex_3_08EsrchExcC2ERNSt3__118basic_stringstreamIcNS1_11char_traitsIcEENS1_9allocatorIcEEEE
_ZN7Iex_3_08EsrchExcC2Ev
_ZN7Iex_3_08EsrchExcD0Ev
_ZN7Iex_3_08EsrchExcD1Ev
_ZN7Iex_3_08EsrchExcD2Ev
_ZN7Iex_3_08EsrchExcaSEOS0_
_ZN7Iex_3_08EsrchExcaSERS0_
_ZN7Iex_3_08EtimeExcC1EONSt3__112basic_stringIcNS1_11char_traitsIcEENS1_9allocatorIcEEEE
_ZN7Iex_3_08EtimeExcC1EOS0_
_ZN7Iex_3_08EtimeExcC1EPKc
_ZN7Iex_3_08EtimeExcC1ERKNSt3__112basic_stringIcNS1_11char_traitsIcEENS1_9allocatorIcEEEE
_ZN7Iex_3_08EtimeExcC1ERKS0_
_ZN7Iex_3_08EtimeExcC1ERNSt3__118basic_stringstreamIcNS1_11char_traitsIcEENS1_9allocatorIcEEEE
_ZN7Iex_3_08EtimeExcC1Ev
_ZN7Iex_3_08EtimeExcC2EONSt3__112basic_stringIcNS1_11char_traitsIcEENS1_9allocatorIcEEEE
_ZN7Iex_3_08EtimeExcC2EOS0_
_ZN7Iex_3_08EtimeExcC2EPKc
_ZN7Iex_3_08EtimeExcC2ERKNSt3__112basic_stringIcNS1_11char_traitsIcEENS1_9allocatorIcEEEE
_ZN7Iex_3_08EtimeExcC2ERKS0_
_ZN7Iex_3_08EtimeExcC2ERNSt3__118basic_stringstreamIcNS1_11char_traitsIcEENS1_9allocatorIcEEEE
_ZN7Iex_3_08EtimeExcC2Ev
_ZN7Iex_3_08EtimeExcD0Ev
_ZN7Iex_3_08EtimeExcD1Ev
_ZN7Iex_3_08EtimeExcD2Ev
_ZN7Iex_3_08EtimeExcaSEOS0_
_ZN7Iex_3_08EtimeExcaSERS0_
_ZN7Iex_3_08ExdevExcC1EONSt3__112basic_stringIcNS1_11char_traitsIcEENS1_9allocatorIcEEEE
_ZN7Iex_3_08ExdevExcC1EOS0_
_ZN7Iex_3_08ExdevExcC1EPKc
_ZN7Iex_3_08ExdevExcC1ERKNSt3__112basic_stringIcNS1_11char_traitsIcEENS1_9allocatorIcEEEE
_ZN7Iex_3_08ExdevExcC1ERKS0_
_ZN7Iex_3_08ExdevExcC1ERNSt3__118basic_stringstreamIcNS1_11char_traitsIcEENS1_9allocatorIcEEEE
_ZN7Iex_3_08ExdevExcC1Ev
_ZN7Iex_3_08ExdevExcC2EONSt3__112basic_stringIcNS1_11char_traitsIcEENS1_9allocatorIcEEEE
_ZN7Iex_3_08ExdevExcC2EOS0_
_ZN7Iex_3_08ExdevExcC2EPKc
_ZN7Iex_3_08ExdevExcC2ERKNSt3__112basic_stringIcNS1_11char_traitsIcEENS1_9allocatorIcEEEE
_ZN7Iex_3_08ExdevExcC2ERKS0_
_ZN7Iex_3_08ExdevExcC2ERNSt3__118basic_stringstreamIcNS1_11char_traitsIcEENS1_9allocatorIcEEEE
_ZN7Iex_3_08ExdevExcC2Ev
_ZN7Iex_3_08ExdevExcD0Ev
_ZN7Iex_3_08ExdevExcD1Ev
_ZN7Iex_3_08ExdevExcD2Ev
_ZN7Iex_3_08ExdevExcaSEOS0_
_ZN7Iex_3_08ExdevExcaSERS0_
_ZN7Iex_3_08InputExcC1EONSt3__112basic_stringIcNS1_11char_traitsIcEENS1_9allocatorIcEEEE
_ZN7Iex_3_08InputExcC1EOS0_
_ZN7Iex_3_08InputExcC1EPKc
_ZN7Iex_3_08InputExcC1ERKNSt3__112basic_stringIcNS1_11char_traitsIcEENS1_9allocatorIcEEEE
_ZN7Iex_3_08InputExcC1ERKS0_
_ZN7Iex_3_08InputExcC1ERNSt3__118basic_stringstreamIcNS1_11char_traitsIcEENS1_9allocatorIcEEEE
_ZN7Iex_3_08InputExcC1Ev
_ZN7Iex_3_08InputExcC2EONSt3__112basic_stringIcNS1_11char_traitsIcEENS1_9allocatorIcEEEE
_ZN7Iex_3_08InputExcC2EOS0_
_ZN7Iex_3_08InputExcC2EPKc
_ZN7Iex_3_08InputExcC2ERKNSt3__112basic_stringIcNS1_11char_traitsIcEENS1_9allocatorIcEEEE
_ZN7Iex_3_08InputExcC2ERKS0_
_ZN7Iex_3_08InputExcC2ERNSt3__118basic_stringstreamIcNS1_11char_traitsIcEENS1_9allocatorIcEEEE
_ZN7Iex_3_08InputExcC2Ev
_ZN7Iex_3_08InputExcD0Ev
_ZN7Iex_3_08InputExcD1Ev
_ZN7Iex_3_08InputExcD2Ev
_ZN7Iex_3_08InputExcaSEOS0_
_ZN7Iex_3_08InputExcaSERS0_
_ZN7Iex_3_08LogicExcC1EONSt3__112basic_stringIcNS1_11char_traitsIcEENS1_9allocatorIcEEEE
_ZN7Iex_3_08LogicExcC1EOS0_
_ZN7Iex_3_08LogicExcC1EPKc
_ZN7Iex_3_08LogicExcC1ERKNSt3__112basic_stringIcNS1_11char_traitsIcEENS1_9allocatorIcEEEE
_ZN7Iex_3_08LogicExcC1ERKS0_
_ZN7Iex_3_08LogicExcC1ERNSt3__118basic_stringstreamIcNS1_11char_traitsIcEENS1_9allocatorIcEEEE
_ZN7Iex_3_08LogicExcC1Ev
_ZN7Iex_3_08LogicExcC2EONSt3__112basic_stringIcNS1_11char_traitsIcEENS1_9allocatorIcEEEE
_ZN7Iex_3_08LogicExcC2EOS0_
_ZN7Iex_3_08LogicExcC2EPKc
_ZN7Iex_3_08LogicExcC2ERKNSt3__112basic_stringIcNS1_11char_traitsIcEENS1_9allocatorIcEEEE
_ZN7Iex_3_08LogicExcC2ERKS0_
_ZN7Iex_3_08LogicExcC2ERNSt3__118basic_stringstreamIcNS1_11char_traitsIcEENS1_9allocatorIcEEEE
_ZN7Iex_3_08LogicExcC2Ev
_ZN7Iex_3_08LogicExcD0Ev
_ZN7Iex_3_08LogicExcD1Ev
_ZN7Iex_3_08LogicExcD2Ev
_ZN7Iex_3_08LogicExcaSEOS0_
_ZN7Iex_3_08LogicExcaSERS0_
_ZN7Iex_3_09EaccesExcC1EONSt3__112basic_stringIcNS1_11char_traitsIcEENS1_9allocatorIcEEEE
_ZN7Iex_3_09EaccesExcC1EOS0_
_ZN7Iex_3_09EaccesExcC1EPKc
_ZN7Iex_3_09EaccesExcC1ERKNSt3__112basic_stringIcNS1_11char_traitsIcEENS1_9allocatorIcEEEE
_ZN7Iex_3_09EaccesExcC1ERKS0_
_ZN7Iex_3_09EaccesExcC1ERNSt3__118basic_stringstreamIcNS1_11char_traitsIcEENS1_9allocatorIcEEEE
_ZN7Iex_3_09EaccesExcC1Ev
_ZN7Iex_3_09EaccesExcC2EONSt3__112basic_stringIcNS1_11char_traitsIcEENS1_9allocatorIcEEEE
_ZN7Iex_3_09EaccesExcC2EOS0_
_ZN7Iex_3_09EaccesExcC2EPKc
_ZN7Iex_3_09EaccesExcC2ERKNSt3__112basic_stringIcNS1_11char_traitsIcEENS1_9allocatorIcEEEE
_ZN7Iex_3_09EaccesExcC2ERKS0_
_ZN7Iex_3_09EaccesExcC2ERNSt3__118basic_stringstreamIcNS1_11char_traitsIcEENS1_9allocatorIcEEEE
_ZN7Iex_3_09EaccesExcC2Ev
_ZN7Iex_3_09EaccesExcD0Ev
_ZN7Iex_3_09EaccesExcD1Ev
_ZN7Iex_3_09EaccesExcD2Ev
_ZN7Iex_3_09EaccesExcaSEOS0_
_ZN7Iex_3_09EaccesExcaSERS0_
_ZN7Iex_3_09EagainExcC1EONSt3__112basic_stringIcNS1_11char_traitsIcEENS1_9allocatorIcEEEE
_ZN7Iex_3_09EagainExcC1EOS0_
_ZN7Iex_3_09EagainExcC1EPKc
_ZN7Iex_3_09EagainExcC1ERKNSt3__112basic_stringIcNS1_11char_traitsIcEENS1_9allocatorIcEEEE
_ZN7Iex_3_09EagainExcC1ERKS0_
_ZN7Iex_3_09EagainExcC1ERNSt3__118basic_stringstreamIcNS1_11char_traitsIcEENS1_9allocatorIcEEEE
_ZN7Iex_3_09EagainExcC1Ev
_ZN7Iex_3_09EagainExcC2EONSt3__112basic_stringIcNS1_11char_traitsIcEENS1_9allocatorIcEEEE
_ZN7Iex_3_09EagainExcC2EOS0_
_ZN7Iex_3_09EagainExcC2EPKc
_ZN7Iex_3_09EagainExcC2ERKNSt3__112basic_stringIcNS1_11char_traitsIcEENS1_9allocatorIcEEEE
_ZN7Iex_3_09EagainExcC2ERKS0_
_ZN7Iex_3_09EagainExcC2ERNSt3__118basic_stringstreamIcNS1_11char_traitsIcEENS1_9allocatorIcEEEE
_ZN7Iex_3_09EagainExcC2Ev
_ZN7Iex_3_09EagainExcD0Ev
_ZN7Iex_3_09EagainExcD1Ev
_ZN7Iex_3_09EagainExcD2Ev
_ZN7Iex_3_09EagainExcaSEOS0_
_ZN7Iex_3_09EagainExcaSERS0_
_ZN7Iex_3_09EbadfdExcC1EONSt3__112basic_stringIcNS1_11char_traitsIcEENS1_9allocatorIcEEEE
_ZN7Iex_3_09EbadfdExcC1EOS0_
_ZN7Iex_3_09EbadfdExcC1EPKc
_ZN7Iex_3_09EbadfdExcC1ERKNSt3__112basic_stringIcNS1_11char_traitsIcEENS1_9allocatorIcEEEE
_ZN7Iex_3_09EbadfdExcC1ERKS0_
_ZN7Iex_3_09EbadfdExcC1ERNSt3__118basic_stringstreamIcNS1_11char_traitsIcEENS1_9allocatorIcEEEE
_ZN7Iex_3_09EbadfdExcC1Ev
_ZN7Iex_3_09EbadfdExcC2EONSt3__112basic_stringIcNS1_11char_traitsIcEENS1_9allocatorIcEEEE
_ZN7Iex_3_09EbadfdExcC2EOS0_
_ZN7Iex_3_09EbadfdExcC2EPKc
_ZN7Iex_3_09EbadfdExcC2ERKNSt3__112basic_stringIcNS1_11char_traitsIcEENS1_9allocatorIcEEEE
_ZN7Iex_3_09EbadfdExcC2ERKS0_
_ZN7Iex_3_09EbadfdExcC2ERNSt3__118basic_stringstreamIcNS1_11char_traitsIcEENS1_9allocatorIcEEEE
_ZN7Iex_3_09EbadfdExcC2Ev
_ZN7Iex_3_09EbadfdExcD0Ev
_ZN7Iex_3_09EbadfdExcD1Ev
_ZN7Iex_3_09EbadfdExcD2Ev
_ZN7Iex_3_09EbadfdExcaSEOS0_
_ZN7Iex_3_09EbadfdExcaSERS0_
_ZN7Iex_3_09EbfontExcC1EONSt3__112basic_stringIcNS1_11char_traitsIcEENS1_9allocatorIcEEEE
_ZN7Iex_3_09EbfontExcC1EOS0_
_ZN7Iex_3_09EbfontExcC1EPKc
_ZN7Iex_3_09EbfontExcC1ERKNSt3__112basic_stringIcNS1_11char_traitsIcEENS1_9allocatorIcEEEE
_ZN7Iex_3_09EbfontExcC1ERKS0_
_ZN7Iex_3_09EbfontExcC1ERNSt3__118basic_stringstreamIcNS1_11char_traitsIcEENS1_9allocatorIcEEEE
_ZN7Iex_3_09EbfontExcC1Ev
_ZN7Iex_3_09EbfontExcC2EONSt3__112basic_stringIcNS1_11char_traitsIcEENS1_9allocatorIcEEEE
_ZN7Iex_3_09EbfontExcC2EOS0_
_ZN7Iex_3_09EbfontExcC2EPKc
_ZN7Iex_3_09EbfontExcC2ERKNSt3__112basic_stringIcNS1_11char_traitsIcEENS1_9allocatorIcEEEE
_ZN7Iex_3_09EbfontExcC2ERKS0_
_ZN7Iex_3_09EbfontExcC2ERNSt3__118basic_stringstreamIcNS1_11char_traitsIcEENS1_9allocatorIcEEEE
_ZN7Iex_3_09EbfontExcC2Ev
_ZN7Iex_3_09EbfontExcD0Ev
_ZN7Iex_3_09EbfontExcD1Ev
_ZN7Iex_3_09EbfontExcD2Ev
_ZN7Iex_3_09EbfontExcaSEOS0_
_ZN7Iex_3_09EbfontExcaSERS0_
_ZN7Iex_3_09EchildExcC1EONSt3__112basic_stringIcNS1_11char_traitsIcEENS1_9allocatorIcEEEE
_ZN7Iex_3_09EchildExcC1EOS0_
_ZN7Iex_3_09EchildExcC1EPKc
_ZN7Iex_3_09EchildExcC1ERKNSt3__112basic_stringIcNS1_11char_traitsIcEENS1_9allocatorIcEEEE
_ZN7Iex_3_09EchildExcC1ERKS0_
_ZN7Iex_3_09EchildExcC1ERNSt3__118basic_stringstreamIcNS1_11char_traitsIcEENS1_9allocatorIcEEEE
_ZN7Iex_3_09EchildExcC1Ev
_ZN7Iex_3_09EchildExcC2EONSt3__112basic_stringIcNS1_11char_traitsIcEENS1_9allocatorIcEEEE
_ZN7Iex_3_09EchildExcC2EOS0_
_ZN7Iex_3_09EchildExcC2EPKc
_ZN7Iex_3_09EchildExcC2ERKNSt3__112basic_stringIcNS1_11char_traitsIcEENS1_9allocatorIcEEEE
_ZN7Iex_3_09EchildExcC2ERKS0_
_ZN7Iex_3_09EchildExcC2ERNSt3__118basic_stringstreamIcNS1_11char_traitsIcEENS1_9allocatorIcEEEE
_ZN7Iex_3_09EchildExcC2Ev
_ZN7Iex_3_09EchildExcD0Ev
_ZN7Iex_3_09EchildExcD1Ev
_ZN7Iex_3_09EchildExcD2Ev
_ZN7Iex_3_09EchildExcaSEOS0_
_ZN7Iex_3_09EchildExcaSERS0_
_ZN7Iex_3_09EchrngExcC1EONSt3__112basic_stringIcNS1_11char_traitsIcEENS1_9allocatorIcEEEE
_ZN7Iex_3_09EchrngExcC1EOS0_
_ZN7Iex_3_09EchrngExcC1EPKc
_ZN7Iex_3_09EchrngExcC1ERKNSt3__112basic_stringIcNS1_11char_traitsIcEENS1_9allocatorIcEEEE
_ZN7Iex_3_09EchrngExcC1ERKS0_
_ZN7Iex_3_09EchrngExcC1ERNSt3__118basic_stringstreamIcNS1_11char_traitsIcEENS1_9allocatorIcEEEE
_ZN7Iex_3_09EchrngExcC1Ev
_ZN7Iex_3_09EchrngExcC2EONSt3__112basic_stringIcNS1_11char_traitsIcEENS1_9allocatorIcEEEE
_ZN7Iex_3_09EchrngExcC2EOS0_
_ZN7Iex_3_09EchrngExcC2EPKc
_ZN7Iex_3_09EchrngExcC2ERKNSt3__112basic_stringIcNS1_11char_traitsIcEENS1_9allocatorIcEEEE
_ZN7Iex_3_09EchrngExcC2ERKS0_
_ZN7Iex_3_09EchrngExcC2ERNSt3__118basic_stringstreamIcNS1_11char_traitsIcEENS1_9allocatorIcEEEE
_ZN7Iex_3_09EchrngExcC2Ev
_ZN7Iex_3_09EchrngExcD0Ev
_ZN7Iex_3_09EchrngExcD1Ev
_ZN7Iex_3_09EchrngExcD2Ev
_ZN7Iex_3_09EchrngExcaSEOS0_
_ZN7Iex_3_09EchrngExcaSERS0_
_ZN7Iex_3_09EdquotExcC1EONSt3__112basic_stringIcNS1_11char_traitsIcEENS1_9allocatorIcEEEE
_ZN7Iex_3_09EdquotExcC1EOS0_
_ZN7Iex_3_09EdquotExcC1EPKc
_ZN7Iex_3_09EdquotExcC1ERKNSt3__112basic_stringIcNS1_11char_traitsIcEENS1_9allocatorIcEEEE
_ZN7Iex_3_09EdquotExcC1ERKS0_
_ZN7Iex_3_09EdquotExcC1ERNSt3__118basic_stringstreamIcNS1_11char_traitsIcEENS1_9allocatorIcEEEE
_ZN7Iex_3_09EdquotExcC1Ev
_ZN7Iex_3_09EdquotExcC2EONSt3__112basic_stringIcNS1_11char_traitsIcEENS1_9allocatorIcEEEE
_ZN7Iex_3_09EdquotExcC2EOS0_
_ZN7Iex_3_09EdquotExcC2EPKc
_ZN7Iex_3_09EdquotExcC2ERKNSt3__112basic_stringIcNS1_11char_traitsIcEENS1_9allocatorIcEEEE
_ZN7Iex_3_09EdquotExcC2ERKS0_
_ZN7Iex_3_09EdquotExcC2ERNSt3__118basic_stringstreamIcNS1_11char_traitsIcEENS1_9allocatorIcEEEE
_ZN7Iex_3_09EdquotExcC2Ev
_ZN7Iex_3_09EdquotExcD0Ev
_ZN7Iex_3_09EdquotExcD1Ev
_ZN7Iex_3_09EdquotExcD2Ev
_ZN7Iex_3_09EdquotExcaSEOS0_
_ZN7Iex_3_09EdquotExcaSERS0_
_ZN7Iex_3_09EemptyExcC1EONSt3__112basic_stringIcNS1_11char_traitsIcEENS1_9allocatorIcEEEE
_ZN7Iex_3_09EemptyExcC1EOS0_
_ZN7Iex_3_09EemptyExcC1EPKc
_ZN7Iex_3_09EemptyExcC1ERKNSt3__112basic_stringIcNS1_11char_traitsIcEENS1_9allocatorIcEEEE
_ZN7Iex_3_09EemptyExcC1ERKS0_
_ZN7Iex_3_09EemptyExcC1ERNSt3__118basic_stringstreamIcNS1_11char_traitsIcEENS1_9allocatorIcEEEE
_ZN7Iex_3_09EemptyExcC1Ev
_ZN7Iex_3_09EemptyExcC2EONSt3__112basic_stringIcNS1_11char_traitsIcEENS1_9allocatorIcEEEE
_ZN7Iex_3_09EemptyExcC2EOS0_
_ZN7Iex_3_09EemptyExcC2EPKc
_ZN7Iex_3_09EemptyExcC2ERKNSt3__112basic_stringIcNS1_11char_traitsIcEENS1_9allocatorIcEEEE
_ZN7Iex_3_09EemptyExcC2ERKS0_
_ZN7Iex_3_09EemptyExcC2ERNSt3__118basic_stringstreamIcNS1_11char_traitsIcEENS1_9allocatorIcEEEE
_ZN7Iex_3_09EemptyExcC2Ev
_ZN7Iex_3_09EemptyExcD0Ev
_ZN7Iex_3_09EemptyExcD1Ev
_ZN7Iex_3_09EemptyExcD2Ev
_ZN7Iex_3_09EemptyExcaSEOS0_
_ZN7Iex_3_09EemptyExcaSERS0_
_ZN7Iex_3_09EexistExcC1EONSt3__112basic_stringIcNS1_11char_traitsIcEENS1_9allocatorIcEEEE
_ZN7Iex_3_09EexistExcC1EOS0_
_ZN7Iex_3_09EexistExcC1EPKc
_ZN7Iex_3_09EexistExcC1ERKNSt3__112basic_stringIcNS1_11char_traitsIcEENS1_9allocatorIcEEEE
_ZN7Iex_3_09EexistExcC1ERKS0_
_ZN7Iex_3_09EexistExcC1ERNSt3__118basic_stringstreamIcNS1_11char_traitsIcEENS1_9allocatorIcEEEE
_ZN7Iex_3_09EexistExcC1Ev
_ZN7Iex_3_09EexistExcC2EONSt3__112basic_stringIcNS1_11char_traitsIcEENS1_9allocatorIcEEEE
_ZN7Iex_3_09EexistExcC2EOS0_
_ZN7Iex_3_09EexistExcC2EPKc
_ZN7Iex_3_09EexistExcC2ERKNSt3__112basic_stringIcNS1_11char_traitsIcEENS1_9allocatorIcEEEE
_ZN7Iex_3_09EexistExcC2ERKS0_
_ZN7Iex_3_09EexistExcC2ERNSt3__118basic_stringstreamIcNS1_11char_traitsIcEENS1_9allocatorIcEEEE
_ZN7Iex_3_09EexistExcC2Ev
_ZN7Iex_3_09EexistExcD0Ev
_ZN7Iex_3_09EexistExcD1Ev
_ZN7Iex_3_09EexistExcD2Ev
_ZN7Iex_3_09EexistExcaSEOS0_
_ZN7Iex_3_09EexistExcaSERS0_
_ZN7Iex_3_09EfaultExcC1EONSt3__112basic_stringIcNS1_11char_traitsIcEENS1_9allocatorIcEEEE
_ZN7Iex_3_09EfaultExcC1EOS0_
_ZN7Iex_3_09EfaultExcC1EPKc
_ZN7Iex_3_09EfaultExcC1ERKNSt3__112basic_stringIcNS1_11char_traitsIcEENS1_9allocatorIcEEEE
_ZN7Iex_3_09EfaultExcC1ERKS0_
_ZN7Iex_3_09EfaultExcC1ERNSt3__118basic_stringstreamIcNS1_11char_traitsIcEENS1_9allocatorIcEEEE
_ZN7Iex_3_09EfaultExcC1Ev
_ZN7Iex_3_09EfaultExcC2EONSt3__112basic_stringIcNS1_11char_traitsIcEENS1_9allocatorIcEEEE
_ZN7Iex_3_09EfaultExcC2EOS0_
_ZN7Iex_3_09EfaultExcC2EPKc
_ZN7Iex_3_09EfaultExcC2ERKNSt3__112basic_stringIcNS1_11char_traitsIcEENS1_9allocatorIcEEEE
_ZN7Iex_3_09EfaultExcC2ERKS0_
_ZN7Iex_3_09EfaultExcC2ERNSt3__118basic_stringstreamIcNS1_11char_traitsIcEENS1_9allocatorIcEEEE
_ZN7Iex_3_09EfaultExcC2Ev
_ZN7Iex_3_09EfaultExcD0Ev
_ZN7Iex_3_09EfaultExcD1Ev
_ZN7Iex_3_09EfaultExcD2Ev
_ZN7Iex_3_09EfaultExcaSEOS0_
_ZN7Iex_3_09EfaultExcaSERS0_
_ZN7Iex_3_09EilseqExcC1EONSt3__112basic_stringIcNS1_11char_traitsIcEENS1_9allocatorIcEEEE
_ZN7Iex_3_09EilseqExcC1EOS0_
_ZN7Iex_3_09EilseqExcC1EPKc
_ZN7Iex_3_09EilseqExcC1ERKNSt3__112basic_stringIcNS1_11char_traitsIcEENS1_9allocatorIcEEEE
_ZN7Iex_3_09EilseqExcC1ERKS0_
_ZN7Iex_3_09EilseqExcC1ERNSt3__118basic_stringstreamIcNS1_11char_traitsIcEENS1_9allocatorIcEEEE
_ZN7Iex_3_09EilseqExcC1Ev
_ZN7Iex_3_09EilseqExcC2EONSt3__112basic_stringIcNS1_11char_traitsIcEENS1_9allocatorIcEEEE
_ZN7Iex_3_09EilseqExcC2EOS0_
_ZN7Iex_3_09EilseqExcC2EPKc
_ZN7Iex_3_09EilseqExcC2ERKNSt3__112basic_stringIcNS1_11char_traitsIcEENS1_9allocatorIcEEEE
_ZN7Iex_3_09EilseqExcC2ERKS0_
_ZN7Iex_3_09EilseqExcC2ERNSt3__118basic_stringstreamIcNS1_11char_traitsIcEENS1_9allocatorIcEEEE
_ZN7Iex_3_09EilseqExcC2Ev
_ZN7Iex_3_09EilseqExcD0Ev
_ZN7Iex_3_09EilseqExcD1Ev
_ZN7Iex_3_09EilseqExcD2Ev
_ZN7Iex_3_09EilseqExcaSEOS0_
_ZN7Iex_3_09EilseqExcaSERS0_
_ZN7Iex_3_09EinvalExcC1EONSt3__112basic_stringIcNS1_11char_traitsIcEENS1_9allocatorIcEEEE
_ZN7Iex_3_09EinvalExcC1EOS0_
_ZN7Iex_3_09EinvalExcC1EPKc
_ZN7Iex_3_09EinvalExcC1ERKNSt3__112basic_stringIcNS1_11char_traitsIcEENS1_9allocatorIcEEEE
_ZN7Iex_3_09EinvalExcC1ERKS0_
_ZN7Iex_3_09EinvalExcC1ERNSt3__118basic_stringstreamIcNS1_11char_traitsIcEENS1_9allocatorIcEEEE
_ZN7Iex_3_09EinvalExcC1Ev
_ZN7Iex_3_09EinvalExcC2EONSt3__112basic_stringIcNS1_11char_traitsIcEENS1_9allocatorIcEEEE
_ZN7Iex_3_09EinvalExcC2EOS0_
_ZN7Iex_3_09EinvalExcC2EPKc
_ZN7Iex_3_09EinvalExcC2ERKNSt3__112basic_stringIcNS1_11char_traitsIcEENS1_9allocatorIcEEEE
_ZN7Iex_3_09EinvalExcC2ERKS0_
_ZN7Iex_3_09EinvalExcC2ERNSt3__118basic_stringstreamIcNS1_11char_traitsIcEENS1_9allocatorIcEEEE
_ZN7Iex_3_09EinvalExcC2Ev
_ZN7Iex_3_09EinvalExcD0Ev
_ZN7Iex_3_09EinvalExcD1Ev
_ZN7Iex_3_09EinvalExcD2Ev
_ZN7Iex_3_09EinvalExcaSEOS0_
_ZN7Iex_3_09EinvalExcaSERS0_
_ZN7Iex_3_09EisdirExcC1EONSt3__112basic_stringIcNS1_11char_traitsIcEENS1_9allocatorIcEEEE
_ZN7Iex_3_09EisdirExcC1EOS0_
_ZN7Iex_3_09EisdirExcC1EPKc
_ZN7Iex_3_09EisdirExcC1ERKNSt3__112basic_stringIcNS1_11char_traitsIcEENS1_9allocatorIcEEEE
_ZN7Iex_3_09EisdirExcC1ERKS0_
_ZN7Iex_3_09EisdirExcC1ERNSt3__118basic_stringstreamIcNS1_11char_traitsIcEENS1_9allocatorIcEEEE
_ZN7Iex_3_09EisdirExcC1Ev
_ZN7Iex_3_09EisdirExcC2EONSt3__112basic_stringIcNS1_11char_traitsIcEENS1_9allocatorIcEEEE
_ZN7Iex_3_09EisdirExcC2EOS0_
_ZN7Iex_3_09EisdirExcC2EPKc
_ZN7Iex_3_09EisdirExcC2ERKNSt3__112basic_stringIcNS1_11char_traitsIcEENS1_9allocatorIcEEEE
_ZN7Iex_3_09EisdirExcC2ERKS0_
_ZN7Iex_3_09EisdirExcC2ERNSt3__118basic_stringstreamIcNS1_11char_traitsIcEENS1_9allocatorIcEEEE
_ZN7Iex_3_09EisdirExcC2Ev
_ZN7Iex_3_09EisdirExcD0Ev
_ZN7Iex_3_09EisdirExcD1Ev
_ZN7Iex_3_09EisdirExcD2Ev
_ZN7Iex_3_09EisdirExcaSEOS0_
_ZN7Iex_3_09EisdirExcaSERS0_
_ZN7Iex_3_09EisnamExcC1EONSt3__112basic_stringIcNS1_11char_traitsIcEENS1_9allocatorIcEEEE
_ZN7Iex_3_09EisnamExcC1EOS0_
_ZN7Iex_3_09EisnamExcC1EPKc
_ZN7Iex_3_09EisnamExcC1ERKNSt3__112basic_stringIcNS1_11char_traitsIcEENS1_9allocatorIcEEEE
_ZN7Iex_3_09EisnamExcC1ERKS0_
_ZN7Iex_3_09EisnamExcC1ERNSt3__118basic_stringstreamIcNS1_11char_traitsIcEENS1_9allocatorIcEEEE
_ZN7Iex_3_09EisnamExcC1Ev
_ZN7Iex_3_09EisnamExcC2EONSt3__112basic_stringIcNS1_11char_traitsIcEENS1_9allocatorIcEEEE
_ZN7Iex_3_09EisnamExcC2EOS0_
_ZN7Iex_3_09EisnamExcC2EPKc
_ZN7Iex_3_09EisnamExcC2ERKNSt3__112basic_stringIcNS1_11char_traitsIcEENS1_9allocatorIcEEEE
_ZN7Iex_3_09EisnamExcC2ERKS0_
_ZN7Iex_3_09EisnamExcC2ERNSt3__118basic_stringstreamIcNS1_11char_traitsIcEENS1_9allocatorIcEEEE
_ZN7Iex_3_09EisnamExcC2Ev
_ZN7Iex_3_09EisnamExcD0Ev
_ZN7Iex_3_09EisnamExcD1Ev
_ZN7Iex_3_09EisnamExcD2Ev
_ZN7Iex_3_09EisnamExcaSEOS0_
_ZN7Iex_3_09EisnamExcaSERS0_
_ZN7Iex_3_09El2hltExcC1EONSt3__112basic_stringIcNS1_11char_traitsIcEENS1_9allocatorIcEEEE
_ZN7Iex_3_09El2hltExcC1EOS0_
_ZN7Iex_3_09El2hltExcC1EPKc
_ZN7Iex_3_09El2hltExcC1ERKNSt3__112basic_stringIcNS1_11char_traitsIcEENS1_9allocatorIcEEEE
_ZN7Iex_3_09El2hltExcC1ERKS0_
_ZN7Iex_3_09El2hltExcC1ERNSt3__118basic_stringstreamIcNS1_11char_traitsIcEENS1_9allocatorIcEEEE
_ZN7Iex_3_09El2hltExcC1Ev
_ZN7Iex_3_09El2hltExcC2EONSt3__112basic_stringIcNS1_11char_traitsIcEENS1_9allocatorIcEEEE
_ZN7Iex_3_09El2hltExcC2EOS0_
_ZN7Iex_3_09El2hltExcC2EPKc
_ZN7Iex_3_09El2hltExcC2ERKNSt3__112basic_stringIcNS1_11char_traitsIcEENS1_9allocatorIcEEEE
_ZN7Iex_3_09El2hltExcC2ERKS0_
_ZN7Iex_3_09El2hltExcC2ERNSt3__118basic_stringstreamIcNS1_11char_traitsIcEENS1_9allocatorIcEEEE
_ZN7Iex_3_09El2hltExcC2Ev
_ZN7Iex_3_09El2hltExcD0Ev
_ZN7Iex_3_09El2hltExcD1Ev
_ZN7Iex_3_09El2hltExcD2Ev
_ZN7Iex_3_09El2hltExcaSEOS0_
_ZN7Iex_3_09El2hltExcaSERS0_
_ZN7Iex_3_09El3hltExcC1EONSt3__112basic_stringIcNS1_11char_traitsIcEENS1_9allocatorIcEEEE
_ZN7Iex_3_09El3hltExcC1EOS0_
_ZN7Iex_3_09El3hltExcC1EPKc
_ZN7Iex_3_09El3hltExcC1ERKNSt3__112basic_stringIcNS1_11char_traitsIcEENS1_9allocatorIcEEEE
_ZN7Iex_3_09El3hltExcC1ERKS0_
_ZN7Iex_3_09El3hltExcC1ERNSt3__118basic_stringstreamIcNS1_11char_traitsIcEENS1_9allocatorIcEEEE
_ZN7Iex_3_09El3hltExcC1Ev
_ZN7Iex_3_09El3hltExcC2EONSt3__112basic_stringIcNS1_11char_traitsIcEENS1_9allocatorIcEEEE
_ZN7Iex_3_09El3hltExcC2EOS0_
_ZN7Iex_3_09El3hltExcC2EPKc
_ZN7Iex_3_09El3hltExcC2ERKNSt3__112basic_stringIcNS1_11char_traitsIcEENS1_9allocatorIcEEEE
_ZN7Iex_3_09El3hltExcC2ERKS0_
_ZN7Iex_3_09El3hltExcC2ERNSt3__118basic_stringstreamIcNS1_11char_traitsIcEENS1_9allocatorIcEEEE
_ZN7Iex_3_09El3hltExcC2Ev
_ZN7Iex_3_09El3hltExcD0Ev
_ZN7Iex_3_09El3hltExcD1Ev
_ZN7Iex_3_09El3hltExcD2Ev
_ZN7Iex_3_09El3hltExcaSEOS0_
_ZN7Iex_3_09El3hltExcaSERS0_
_ZN7Iex_3_09El3rstExcC1EONSt3__112basic_stringIcNS1_11char_traitsIcEENS1_9allocatorIcEEEE
_ZN7Iex_3_09El3rstExcC1EOS0_
_ZN7Iex_3_09El3rstExcC1EPKc
_ZN7Iex_3_09El3rstExcC1ERKNSt3__112basic_stringIcNS1_11char_traitsIcEENS1_9allocatorIcEEEE
_ZN7Iex_3_09El3rstExcC1ERKS0_
_ZN7Iex_3_09El3rstExcC1ERNSt3__118basic_stringstreamIcNS1_11char_traitsIcEENS1_9allocatorIcEEEE
_ZN7Iex_3_09El3rstExcC1Ev
_ZN7Iex_3_09El3rstExcC2EONSt3__112basic_stringIcNS1_11char_traitsIcEENS1_9allocatorIcEEEE
_ZN7Iex_3_09El3rstExcC2EOS0_
_ZN7Iex_3_09El3rstExcC2EPKc
_ZN7Iex_3_09El3rstExcC2ERKNSt3__112basic_stringIcNS1_11char_traitsIcEENS1_9allocatorIcEEEE
_ZN7Iex_3_09El3rstExcC2ERKS0_
_ZN7Iex_3_09El3rstExcC2ERNSt3__118basic_stringstreamIcNS1_11char_traitsIcEENS1_9allocatorIcEEEE
_ZN7Iex_3_09El3rstExcC2Ev
_ZN7Iex_3_09El3rstExcD0Ev
_ZN7Iex_3_09El3rstExcD1Ev
_ZN7Iex_3_09El3rstExcD2Ev
_ZN7Iex_3_09El3rstExcaSEOS0_
_ZN7Iex_3_09El3rstExcaSERS0_
_ZN7Iex_3_09ElnrngExcC1EONSt3__112basic_stringIcNS1_11char_traitsIcEENS1_9allocatorIcEEEE
_ZN7Iex_3_09ElnrngExcC1EOS0_
_ZN7Iex_3_09ElnrngExcC1EPKc
_ZN7Iex_3_09ElnrngExcC1ERKNSt3__112basic_stringIcNS1_11char_traitsIcEENS1_9allocatorIcEEEE
_ZN7Iex_3_09ElnrngExcC1ERKS0_
_ZN7Iex_3_09ElnrngExcC1ERNSt3__118basic_stringstreamIcNS1_11char_traitsIcEENS1_9allocatorIcEEEE
_ZN7Iex_3_09ElnrngExcC1Ev
_ZN7Iex_3_09ElnrngExcC2EONSt3__112basic_stringIcNS1_11char_traitsIcEENS1_9allocatorIcEEEE
_ZN7Iex_3_09ElnrngExcC2EOS0_
_ZN7Iex_3_09ElnrngExcC2EPKc
_ZN7Iex_3_09ElnrngExcC2ERKNSt3__112basic_stringIcNS1_11char_traitsIcEENS1_9allocatorIcEEEE
_ZN7Iex_3_09ElnrngExcC2ERKS0_
_ZN7Iex_3_09ElnrngExcC2ERNSt3__118basic_stringstreamIcNS1_11char_traitsIcEENS1_9allocatorIcEEEE
_ZN7Iex_3_09ElnrngExcC2Ev
_ZN7Iex_3_09ElnrngExcD0Ev
_ZN7Iex_3_09ElnrngExcD1Ev
_ZN7Iex_3_09ElnrngExcD2Ev
_ZN7Iex_3_09ElnrngExcaSEOS0_
_ZN7Iex_3_09ElnrngExcaSERS0_
_ZN7Iex_3_09EmfileExcC1EONSt3__112basic_stringIcNS1_11char_traitsIcEENS1_9allocatorIcEEEE
_ZN7Iex_3_09EmfileExcC1EOS0_
_ZN7Iex_3_09EmfileExcC1EPKc
_ZN7Iex_3_09EmfileExcC1ERKNSt3__112basic_stringIcNS1_11char_traitsIcEENS1_9allocatorIcEEEE
_ZN7Iex_3_09EmfileExcC1ERKS0_
_ZN7Iex_3_09EmfileExcC1ERNSt3__118basic_stringstreamIcNS1_11char_traitsIcEENS1_9allocatorIcEEEE
_ZN7Iex_3_09EmfileExcC1Ev
_ZN7Iex_3_09EmfileExcC2EONSt3__112basic_stringIcNS1_11char_traitsIcEENS1_9allocatorIcEEEE
_ZN7Iex_3_09EmfileExcC2EOS0_
_ZN7Iex_3_09EmfileExcC2EPKc
_ZN7Iex_3_09EmfileExcC2ERKNSt3__112basic_stringIcNS1_11char_traitsIcEENS1_9allocatorIcEEEE
_ZN7Iex_3_09EmfileExcC2ERKS0_
_ZN7Iex_3_09EmfileExcC2ERNSt3__118basic_stringstreamIcNS1_11char_traitsIcEENS1_9allocatorIcEEEE
_ZN7Iex_3_09EmfileExcC2Ev
_ZN7Iex_3_09EmfileExcD0Ev
_ZN7Iex_3_09EmfileExcD1Ev
_ZN7Iex_3_09EmfileExcD2Ev
_ZN7Iex_3_09EmfileExcaSEOS0_
_ZN7Iex_3_09EmfileExcaSERS0_
_ZN7Iex_3_09EmlinkExcC1EONSt3__112basic_stringIcNS1_11char_traitsIcEENS1_9allocatorIcEEEE
_ZN7Iex_3_09EmlinkExcC1EOS0_
_ZN7Iex_3_09EmlinkExcC1EPKc
_ZN7Iex_3_09EmlinkExcC1ERKNSt3__112basic_stringIcNS1_11char_traitsIcEENS1_9allocatorIcEEEE
_ZN7Iex_3_09EmlinkExcC1ERKS0_
_ZN7Iex_3_09EmlinkExcC1ERNSt3__118basic_stringstreamIcNS1_11char_traitsIcEENS1_9allocatorIcEEEE
_ZN7Iex_3_09EmlinkExcC1Ev
_ZN7Iex_3_09EmlinkExcC2EONSt3__112basic_stringIcNS1_11char_traitsIcEENS1_9allocatorIcEEEE
_ZN7Iex_3_09EmlinkExcC2EOS0_
_ZN7Iex_3_09EmlinkExcC2EPKc
_ZN7Iex_3_09EmlinkExcC2ERKNSt3__112basic_stringIcNS1_11char_traitsIcEENS1_9allocatorIcEEEE
_ZN7Iex_3_09EmlinkExcC2ERKS0_
_ZN7Iex_3_09EmlinkExcC2ERNSt3__118basic_stringstreamIcNS1_11char_traitsIcEENS1_9allocatorIcEEEE
_ZN7Iex_3_09EmlinkExcC2Ev
_ZN7Iex_3_09EmlinkExcD0Ev
_ZN7Iex_3_09EmlinkExcD1Ev
_ZN7Iex_3_09EmlinkExcD2Ev
_ZN7Iex_3_09EmlinkExcaSEOS0_
_ZN7Iex_3_09EmlinkExcaSERS0_
_ZN7Iex_3_09EnfileExcC1EONSt3__112basic_stringIcNS1_11char_traitsIcEENS1_9allocatorIcEEEE
_ZN7Iex_3_09EnfileExcC1EOS0_
_ZN7Iex_3_09EnfileExcC1EPKc
_ZN7Iex_3_09EnfileExcC1ERKNSt3__112basic_stringIcNS1_11char_traitsIcEENS1_9allocatorIcEEEE
_ZN7Iex_3_09EnfileExcC1ERKS0_
_ZN7Iex_3_09EnfileExcC1ERNSt3__118basic_stringstreamIcNS1_11char_traitsIcEENS1_9allocatorIcEEEE
_ZN7Iex_3_09EnfileExcC1Ev
_ZN7Iex_3_09EnfileExcC2EONSt3__112basic_stringIcNS1_11char_traitsIcEENS1_9allocatorIcEEEE
_ZN7Iex_3_09EnfileExcC2EOS0_
_ZN7Iex_3_09EnfileExcC2EPKc
_ZN7Iex_3_09EnfileExcC2ERKNSt3__112basic_stringIcNS1_11char_traitsIcEENS1_9allocatorIcEEEE
_ZN7Iex_3_09EnfileExcC2ERKS0_
_ZN7Iex_3_09EnfileExcC2ERNSt3__118basic_stringstreamIcNS1_11char_traitsIcEENS1_9allocatorIcEEEE
_ZN7Iex_3_09EnfileExcC2Ev
_ZN7Iex_3_09EnfileExcD0Ev
_ZN7Iex_3_09EnfileExcD1Ev
_ZN7Iex_3_09EnfileExcD2Ev
_ZN7Iex_3_09EnfileExcaSEOS0_
_ZN7Iex_3_09EnfileExcaSERS0_
_ZN7Iex_3_09EnoanoExcC1EONSt3__112basic_stringIcNS1_11char_traitsIcEENS1_9allocatorIcEEEE
_ZN7Iex_3_09EnoanoExcC1EOS0_
_ZN7Iex_3_09EnoanoExcC1EPKc
_ZN7Iex_3_09EnoanoExcC1ERKNSt3__112basic_stringIcNS1_11char_traitsIcEENS1_9allocatorIcEEEE
_ZN7Iex_3_09EnoanoExcC1ERKS0_
_ZN7Iex_3_09EnoanoExcC1ERNSt3__118basic_stringstreamIcNS1_11char_traitsIcEENS1_9allocatorIcEEEE
_ZN7Iex_3_09EnoanoExcC1Ev
_ZN7Iex_3_09EnoanoExcC2EONSt3__112basic_stringIcNS1_11char_traitsIcEENS1_9allocatorIcEEEE
_ZN7Iex_3_09EnoanoExcC2EOS0_
_ZN7Iex_3_09EnoanoExcC2EPKc
_ZN7Iex_3_09EnoanoExcC2ERKNSt3__112basic_stringIcNS1_11char_traitsIcEENS1_9allocatorIcEEEE
_ZN7Iex_3_09EnoanoExcC2ERKS0_
_ZN7Iex_3_09EnoanoExcC2ERNSt3__118basic_stringstreamIcNS1_11char_traitsIcEENS1_9allocatorIcEEEE
_ZN7Iex_3_09EnoanoExcC2Ev
_ZN7Iex_3_09EnoanoExcD0Ev
_ZN7Iex_3_09EnoanoExcD1Ev
_ZN7Iex_3_09EnoanoExcD2Ev
_ZN7Iex_3_09EnoanoExcaSEOS0_
_ZN7Iex_3_09EnoanoExcaSERS0_
_ZN7Iex_3_09EnocsiExcC1EONSt3__112basic_stringIcNS1_11char_traitsIcEENS1_9allocatorIcEEEE
_ZN7Iex_3_09EnocsiExcC1EOS0_
_ZN7Iex_3_09EnocsiExcC1EPKc
_ZN7Iex_3_09EnocsiExcC1ERKNSt3__112basic_stringIcNS1_11char_traitsIcEENS1_9allocatorIcEEEE
_ZN7Iex_3_09EnocsiExcC1ERKS0_
_ZN7Iex_3_09EnocsiExcC1ERNSt3__118basic_stringstreamIcNS1_11char_traitsIcEENS1_9allocatorIcEEEE
_ZN7Iex_3_09EnocsiExcC1Ev
_ZN7Iex_3_09EnocsiExcC2EONSt3__112basic_stringIcNS1_11char_traitsIcEENS1_9allocatorIcEEEE
_ZN7Iex_3_09EnocsiExcC2EOS0_
_ZN7Iex_3_09EnocsiExcC2EPKc
_ZN7Iex_3_09EnocsiExcC2ERKNSt3__112basic_stringIcNS1_11char_traitsIcEENS1_9allocatorIcEEEE
_ZN7Iex_3_09EnocsiExcC2ERKS0_
_ZN7Iex_3_09EnocsiExcC2ERNSt3__118basic_stringstreamIcNS1_11char_traitsIcEENS1_9allocatorIcEEEE
_ZN7Iex_3_09EnocsiExcC2Ev
_ZN7Iex_3_09EnocsiExcD0Ev
_ZN7Iex_3_09EnocsiExcD1Ev
_ZN7Iex_3_09EnocsiExcD2Ev
_ZN7Iex_3_09EnocsiExcaSEOS0_
_ZN7Iex_3_09EnocsiExcaSERS0_
_ZN7Iex_3_09EnodevExcC1EONSt3__112basic_stringIcNS1_11char_traitsIcEENS1_9allocatorIcEEEE
_ZN7Iex_3_09EnodevExcC1EOS0_
_ZN7Iex_3_09EnodevExcC1EPKc
_ZN7Iex_3_09EnodevExcC1ERKNSt3__112basic_stringIcNS1_11char_traitsIcEENS1_9allocatorIcEEEE
_ZN7Iex_3_09EnodevExcC1ERKS0_
_ZN7Iex_3_09EnodevExcC1ERNSt3__118basic_stringstreamIcNS1_11char_traitsIcEENS1_9allocatorIcEEEE
_ZN7Iex_3_09EnodevExcC1Ev
_ZN7Iex_3_09EnodevExcC2EONSt3__112basic_stringIcNS1_11char_traitsIcEENS1_9allocatorIcEEEE
_ZN7Iex_3_09EnodevExcC2EOS0_
_ZN7Iex_3_09EnodevExcC2EPKc
_ZN7Iex_3_09EnodevExcC2ERKNSt3__112basic_stringIcNS1_11char_traitsIcEENS1_9allocatorIcEEEE
_ZN7Iex_3_09EnodevExcC2ERKS0_
_ZN7Iex_3_09EnodevExcC2ERNSt3__118basic_stringstreamIcNS1_11char_traitsIcEENS1_9allocatorIcEEEE
_ZN7Iex_3_09EnodevExcC2Ev
_ZN7Iex_3_09EnodevExcD0Ev
_ZN7Iex_3_09EnodevExcD1Ev
_ZN7Iex_3_09EnodevExcD2Ev
_ZN7Iex_3_09EnodevExcaSEOS0_
_ZN7Iex_3_09EnodevExcaSERS0_
_ZN7Iex_3_09EnoentExcC1EONSt3__112basic_stringIcNS1_11char_traitsIcEENS1_9allocatorIcEEEE
_ZN7Iex_3_09EnoentExcC1EOS0_
_ZN7Iex_3_09EnoentExcC1EPKc
_ZN7Iex_3_09EnoentExcC1ERKNSt3__112basic_stringIcNS1_11char_traitsIcEENS1_9allocatorIcEEEE
_ZN7Iex_3_09EnoentExcC1ERKS0_
_ZN7Iex_3_09EnoentExcC1ERNSt3__118basic_stringstreamIcNS1_11char_traitsIcEENS1_9allocatorIcEEEE
_ZN7Iex_3_09EnoentExcC1Ev
_ZN7Iex_3_09EnoentExcC2EONSt3__112basic_stringIcNS1_11char_traitsIcEENS1_9allocatorIcEEEE
_ZN7Iex_3_09EnoentExcC2EOS0_
_ZN7Iex_3_09EnoentExcC2EPKc
_ZN7Iex_3_09EnoentExcC2ERKNSt3__112basic_stringIcNS1_11char_traitsIcEENS1_9allocatorIcEEEE
_ZN7Iex_3_09EnoentExcC2ERKS0_
_ZN7Iex_3_09EnoentExcC2ERNSt3__118basic_stringstreamIcNS1_11char_traitsIcEENS1_9allocatorIcEEEE
_ZN7Iex_3_09EnoentExcC2Ev
_ZN7Iex_3_09EnoentExcD0Ev
_ZN7Iex_3_09EnoentExcD1Ev
_ZN7Iex_3_09EnoentExcD2Ev
_ZN7Iex_3_09EnoentExcaSEOS0_
_ZN7Iex_3_09EnoentExcaSERS0_
_ZN7Iex_3_09EnolckExcC1EONSt3__112basic_stringIcNS1_11char_traitsIcEENS1_9allocatorIcEEEE
_ZN7Iex_3_09EnolckExcC1EOS0_
_ZN7Iex_3_09EnolckExcC1EPKc
_ZN7Iex_3_09EnolckExcC1ERKNSt3__112basic_stringIcNS1_11char_traitsIcEENS1_9allocatorIcEEEE
_ZN7Iex_3_09EnolckExcC1ERKS0_
_ZN7Iex_3_09EnolckExcC1ERNSt3__118basic_stringstreamIcNS1_11char_traitsIcEENS1_9allocatorIcEEEE
_ZN7Iex_3_09EnolckExcC1Ev
_ZN7Iex_3_09EnolckExcC2EONSt3__112basic_stringIcNS1_11char_traitsIcEENS1_9allocatorIcEEEE
_ZN7Iex_3_09EnolckExcC2EOS0_
_ZN7Iex_3_09EnolckExcC2EPKc
_ZN7Iex_3_09EnolckExcC2ERKNSt3__112basic_stringIcNS1_11char_traitsIcEENS1_9allocatorIcEEEE
_ZN7Iex_3_09EnolckExcC2ERKS0_
_ZN7Iex_3_09EnolckExcC2ERNSt3__118basic_stringstreamIcNS1_11char_traitsIcEENS1_9allocatorIcEEEE
_ZN7Iex_3_09EnolckExcC2Ev
_ZN7Iex_3_09EnolckExcD0Ev
_ZN7Iex_3_09EnolckExcD1Ev
_ZN7Iex_3_09EnolckExcD2Ev
_ZN7Iex_3_09EnolckExcaSEOS0_
_ZN7Iex_3_09EnolckExcaSERS0_
_ZN7Iex_3_09EnomemExcC1EONSt3__112basic_stringIcNS1_11char_traitsIcEENS1_9allocatorIcEEEE
_ZN7Iex_3_09EnomemExcC1EOS0_
_ZN7Iex_3_09EnomemExcC1EPKc
_ZN7Iex_3_09EnomemExcC1ERKNSt3__112basic_stringIcNS1_11char_traitsIcEENS1_9allocatorIcEEEE
_ZN7Iex_3_09EnomemExcC1ERKS0_
_ZN7Iex_3_09EnomemExcC1ERNSt3__118basic_stringstreamIcNS1_11char_traitsIcEENS1_9allocatorIcEEEE
_ZN7Iex_3_09EnomemExcC1Ev
_ZN7Iex_3_09EnomemExcC2EONSt3__112basic_stringIcNS1_11char_traitsIcEENS1_9allocatorIcEEEE
_ZN7Iex_3_09EnomemExcC2EOS0_
_ZN7Iex_3_09EnomemExcC2EPKc
_ZN7Iex_3_09EnomemExcC2ERKNSt3__112basic_stringIcNS1_11char_traitsIcEENS1_9allocatorIcEEEE
_ZN7Iex_3_09EnomemExcC2ERKS0_
_ZN7Iex_3_09EnomemExcC2ERNSt3__118basic_stringstreamIcNS1_11char_traitsIcEENS1_9allocatorIcEEEE
_ZN7Iex_3_09EnomemExcC2Ev
_ZN7Iex_3_09EnomemExcD0Ev
_ZN7Iex_3_09EnomemExcD1Ev
_ZN7Iex_3_09EnomemExcD2Ev
_ZN7Iex_3_09EnomemExcaSEOS0_
_ZN7Iex_3_09EnomemExcaSERS0_
_ZN7Iex_3_09EnomsgExcC1EONSt3__112basic_stringIcNS1_11char_traitsIcEENS1_9allocatorIcEEEE
_ZN7Iex_3_09EnomsgExcC1EOS0_
_ZN7Iex_3_09EnomsgExcC1EPKc
_ZN7Iex_3_09EnomsgExcC1ERKNSt3__112basic_stringIcNS1_11char_traitsIcEENS1_9allocatorIcEEEE
_ZN7Iex_3_09EnomsgExcC1ERKS0_
_ZN7Iex_3_09EnomsgExcC1ERNSt3__118basic_stringstreamIcNS1_11char_traitsIcEENS1_9allocatorIcEEEE
_ZN7Iex_3_09EnomsgExcC1Ev
_ZN7Iex_3_09EnomsgExcC2EONSt3__112basic_stringIcNS1_11char_traitsIcEENS1_9allocatorIcEEEE
_ZN7Iex_3_09EnomsgExcC2EOS0_
_ZN7Iex_3_09EnomsgExcC2EPKc
_ZN7Iex_3_09EnomsgExcC2ERKNSt3__112basic_stringIcNS1_11char_traitsIcEENS1_9allocatorIcEEEE
_ZN7Iex_3_09EnomsgExcC2ERKS0_
_ZN7Iex_3_09EnomsgExcC2ERNSt3__118basic_stringstreamIcNS1_11char_traitsIcEENS1_9allocatorIcEEEE
_ZN7Iex_3_09EnomsgExcC2Ev
_ZN7Iex_3_09EnomsgExcD0Ev
_ZN7Iex_3_09EnomsgExcD1Ev
_ZN7Iex_3_09EnomsgExcD2Ev
_ZN7Iex_3_09EnomsgExcaSEOS0_
_ZN7Iex_3_09EnomsgExcaSERS0_
_ZN7Iex_3_09EnonetExcC1EONSt3__112basic_stringIcNS1_11char_traitsIcEENS1_9allocatorIcEEEE
_ZN7Iex_3_09EnonetExcC1EOS0_
_ZN7Iex_3_09EnonetExcC1EPKc
_ZN7Iex_3_09EnonetExcC1ERKNSt3__112basic_stringIcNS1_11char_traitsIcEENS1_9allocatorIcEEEE
_ZN7Iex_3_09EnonetExcC1ERKS0_
_ZN7Iex_3_09EnonetExcC1ERNSt3__118basic_stringstreamIcNS1_11char_traitsIcEENS1_9allocatorIcEEEE
_ZN7Iex_3_09EnonetExcC1Ev
_ZN7Iex_3_09EnonetExcC2EONSt3__112basic_stringIcNS1_11char_traitsIcEENS1_9allocatorIcEEEE
_ZN7Iex_3_09EnonetExcC2EOS0_
_ZN7Iex_3_09EnonetExcC2EPKc
_ZN7Iex_3_09EnonetExcC2ERKNSt3__112basic_stringIcNS1_11char_traitsIcEENS1_9allocatorIcEEEE
_ZN7Iex_3_09EnonetExcC2ERKS0_
_ZN7Iex_3_09EnonetExcC2ERNSt3__118basic_stringstreamIcNS1_11char_traitsIcEENS1_9allocatorIcEEEE
_ZN7Iex_3_09EnonetExcC2Ev
_ZN7Iex_3_09EnonetExcD0Ev
_ZN7Iex_3_09EnonetExcD1Ev
_ZN7Iex_3_09EnonetExcD2Ev
_ZN7Iex_3_09EnonetExcaSEOS0_
_ZN7Iex_3_09EnonetExcaSERS0_
_ZN7Iex_3_09EnopkgExcC1EONSt3__112basic_stringIcNS1_11char_traitsIcEENS1_9allocatorIcEEEE
_ZN7Iex_3_09EnopkgExcC1EOS0_
_ZN7Iex_3_09EnopkgExcC1EPKc
_ZN7Iex_3_09EnopkgExcC1ERKNSt3__112basic_stringIcNS1_11char_traitsIcEENS1_9allocatorIcEEEE
_ZN7Iex_3_09EnopkgExcC1ERKS0_
_ZN7Iex_3_09EnopkgExcC1ERNSt3__118basic_stringstreamIcNS1_11char_traitsIcEENS1_9allocatorIcEEEE
_ZN7Iex_3_09EnopkgExcC1Ev
_ZN7Iex_3_09EnopkgExcC2EONSt3__112basic_stringIcNS1_11char_traitsIcEENS1_9allocatorIcEEEE
_ZN7Iex_3_09EnopkgExcC2EOS0_
_ZN7Iex_3_09EnopkgExcC2EPKc
_ZN7Iex_3_09EnopkgExcC2ERKNSt3__112basic_stringIcNS1_11char_traitsIcEENS1_9allocatorIcEEEE
_ZN7Iex_3_09EnopkgExcC2ERKS0_
_ZN7Iex_3_09EnopkgExcC2ERNSt3__118basic_stringstreamIcNS1_11char_traitsIcEENS1_9allocatorIcEEEE
_ZN7Iex_3_09EnopkgExcC2Ev
_ZN7Iex_3_09EnopkgExcD0Ev
_ZN7Iex_3_09EnopkgExcD1Ev
_ZN7Iex_3_09EnopkgExcD2Ev
_ZN7Iex_3_09EnopkgExcaSEOS0_
_ZN7Iex_3_09EnopkgExcaSERS0_
_ZN7Iex_3_09EnospcExcC1EONSt3__112basic_stringIcNS1_11char_traitsIcEENS1_9allocatorIcEEEE
_ZN7Iex_3_09EnospcExcC1EOS0_
_ZN7Iex_3_09EnospcExcC1EPKc
_ZN7Iex_3_09EnospcExcC1ERKNSt3__112basic_stringIcNS1_11char_traitsIcEENS1_9allocatorIcEEEE
_ZN7Iex_3_09EnospcExcC1ERKS0_
_ZN7Iex_3_09EnospcExcC1ERNSt3__118basic_stringstreamIcNS1_11char_traitsIcEENS1_9allocatorIcEEEE
_ZN7Iex_3_09EnospcExcC1Ev
_ZN7Iex_3_09EnospcExcC2EONSt3__112basic_stringIcNS1_11char_traitsIcEENS1_9allocatorIcEEEE
_ZN7Iex_3_09EnospcExcC2EOS0_
_ZN7Iex_3_09EnospcExcC2EPKc
_ZN7Iex_3_09EnospcExcC2ERKNSt3__112basic_stringIcNS1_11char_traitsIcEENS1_9allocatorIcEEEE
_ZN7Iex_3_09EnospcExcC2ERKS0_
_ZN7Iex_3_09EnospcExcC2ERNSt3__118basic_stringstreamIcNS1_11char_traitsIcEENS1_9allocatorIcEEEE
_ZN7Iex_3_09EnospcExcC2Ev
_ZN7Iex_3_09EnospcExcD0Ev
_ZN7Iex_3_09EnospcExcD1Ev
_ZN7Iex_3_09EnospcExcD2Ev
_ZN7Iex_3_09EnospcExcaSEOS0_
_ZN7Iex_3_09EnospcExcaSERS0_
_ZN7Iex_3_09EnostrExcC1EONSt3__112basic_stringIcNS1_11char_traitsIcEENS1_9allocatorIcEEEE
_ZN7Iex_3_09EnostrExcC1EOS0_
_ZN7Iex_3_09EnostrExcC1EPKc
_ZN7Iex_3_09EnostrExcC1ERKNSt3__112basic_stringIcNS1_11char_traitsIcEENS1_9allocatorIcEEEE
_ZN7Iex_3_09EnostrExcC1ERKS0_
_ZN7Iex_3_09EnostrExcC1ERNSt3__118basic_stringstreamIcNS1_11char_traitsIcEENS1_9allocatorIcEEEE
_ZN7Iex_3_09EnostrExcC1Ev
_ZN7Iex_3_09EnostrExcC2EONSt3__112basic_stringIcNS1_11char_traitsIcEENS1_9allocatorIcEEEE
_ZN7Iex_3_09EnostrExcC2EOS0_
_ZN7Iex_3_09EnostrExcC2EPKc
_ZN7Iex_3_09EnostrExcC2ERKNSt3__112basic_stringIcNS1_11char_traitsIcEENS1_9allocatorIcEEEE
_ZN7Iex_3_09EnostrExcC2ERKS0_
_ZN7Iex_3_09EnostrExcC2ERNSt3__118basic_stringstreamIcNS1_11char_traitsIcEENS1_9allocatorIcEEEE
_ZN7Iex_3_09EnostrExcC2Ev
_ZN7Iex_3_09EnostrExcD0Ev
_ZN7Iex_3_09EnostrExcD1Ev
_ZN7Iex_3_09EnostrExcD2Ev
_ZN7Iex_3_09EnostrExcaSEOS0_
_ZN7Iex_3_09EnostrExcaSERS0_
_ZN7Iex_3_09EnosysExcC1EONSt3__112basic_stringIcNS1_11char_traitsIcEENS1_9allocatorIcEEEE
_ZN7Iex_3_09EnosysExcC1EOS0_
_ZN7Iex_3_09EnosysExcC1EPKc
_ZN7Iex_3_09EnosysExcC1ERKNSt3__112basic_stringIcNS1_11char_traitsIcEENS1_9allocatorIcEEEE
_ZN7Iex_3_09EnosysExcC1ERKS0_
_ZN7Iex_3_09EnosysExcC1ERNSt3__118basic_stringstreamIcNS1_11char_traitsIcEENS1_9allocatorIcEEEE
_ZN7Iex_3_09EnosysExcC1Ev
_ZN7Iex_3_09EnosysExcC2EONSt3__112basic_stringIcNS1_11char_traitsIcEENS1_9allocatorIcEEEE
_ZN7Iex_3_09EnosysExcC2EOS0_
_ZN7Iex_3_09EnosysExcC2EPKc
_ZN7Iex_3_09EnosysExcC2ERKNSt3__112basic_stringIcNS1_11char_traitsIcEENS1_9allocatorIcEEEE
_ZN7Iex_3_09EnosysExcC2ERKS0_
_ZN7Iex_3_09EnosysExcC2ERNSt3__118basic_stringstreamIcNS1_11char_traitsIcEENS1_9allocatorIcEEEE
_ZN7Iex_3_09EnosysExcC2Ev
_ZN7Iex_3_09EnosysExcD0Ev
_ZN7Iex_3_09EnosysExcD1Ev
_ZN7Iex_3_09EnosysExcD2Ev
_ZN7Iex_3_09EnosysExcaSEOS0_
_ZN7Iex_3_09EnosysExcaSERS0_
_ZN7Iex_3_09EnottyExcC1EONSt3__112basic_stringIcNS1_11char_traitsIcEENS1_9allocatorIcEEEE
_ZN7Iex_3_09EnottyExcC1EOS0_
_ZN7Iex_3_09EnottyExcC1EPKc
_ZN7Iex_3_09EnottyExcC1ERKNSt3__112basic_stringIcNS1_11char_traitsIcEENS1_9allocatorIcEEEE
_ZN7Iex_3_09EnottyExcC1ERKS0_
_ZN7Iex_3_09EnottyExcC1ERNSt3__118basic_stringstreamIcNS1_11char_traitsIcEENS1_9allocatorIcEEEE
_ZN7Iex_3_09EnottyExcC1Ev
_ZN7Iex_3_09EnottyExcC2EONSt3__112basic_stringIcNS1_11char_traitsIcEENS1_9allocatorIcEEEE
_ZN7Iex_3_09EnottyExcC2EOS0_
_ZN7Iex_3_09EnottyExcC2EPKc
_ZN7Iex_3_09EnottyExcC2ERKNSt3__112basic_stringIcNS1_11char_traitsIcEENS1_9allocatorIcEEEE
_ZN7Iex_3_09EnottyExcC2ERKS0_
_ZN7Iex_3_09EnottyExcC2ERNSt3__118basic_stringstreamIcNS1_11char_traitsIcEENS1_9allocatorIcEEEE
_ZN7Iex_3_09EnottyExcC2Ev
_ZN7Iex_3_09EnottyExcD0Ev
_ZN7Iex_3_09EnottyExcD1Ev
_ZN7Iex_3_09EnottyExcD2Ev
_ZN7Iex_3_09EnottyExcaSEOS0_
_ZN7Iex_3_09EnottyExcaSERS0_
_ZN7Iex_3_09EprotoExcC1EONSt3__112basic_stringIcNS1_11char_traitsIcEENS1_9allocatorIcEEEE
_ZN7Iex_3_09EprotoExcC1EOS0_
_ZN7Iex_3_09EprotoExcC1EPKc
_ZN7Iex_3_09EprotoExcC1ERKNSt3__112basic_stringIcNS1_11char_traitsIcEENS1_9allocatorIcEEEE
_ZN7Iex_3_09EprotoExcC1ERKS0_
_ZN7Iex_3_09EprotoExcC1ERNSt3__118basic_stringstreamIcNS1_11char_traitsIcEENS1_9allocatorIcEEEE
_ZN7Iex_3_09EprotoExcC1Ev
_ZN7Iex_3_09EprotoExcC2EONSt3__112basic_stringIcNS1_11char_traitsIcEENS1_9allocatorIcEEEE
_ZN7Iex_3_09EprotoExcC2EOS0_
_ZN7Iex_3_09EprotoExcC2EPKc
_ZN7Iex_3_09EprotoExcC2ERKNSt3__112basic_stringIcNS1_11char_traitsIcEENS1_9allocatorIcEEEE
_ZN7Iex_3_09EprotoExcC2ERKS0_
_ZN7Iex_3_09EprotoExcC2ERNSt3__118basic_stringstreamIcNS1_11char_traitsIcEENS1_9allocatorIcEEEE
_ZN7Iex_3_09EprotoExcC2Ev
_ZN7Iex_3_09EprotoExcD0Ev
_ZN7Iex_3_09EprotoExcD1Ev
_ZN7Iex_3_09EprotoExcD2Ev
_ZN7Iex_3_09EprotoExcaSEOS0_
_ZN7Iex_3_09EprotoExcaSERS0_
_ZN7Iex_3_09ErangeExcC1EONSt3__112basic_stringIcNS1_11char_traitsIcEENS1_9allocatorIcEEEE
_ZN7Iex_3_09ErangeExcC1EOS0_
_ZN7Iex_3_09ErangeExcC1EPKc
_ZN7Iex_3_09ErangeExcC1ERKNSt3__112basic_stringIcNS1_11char_traitsIcEENS1_9allocatorIcEEEE
_ZN7Iex_3_09ErangeExcC1ERKS0_
_ZN7Iex_3_09ErangeExcC1ERNSt3__118basic_stringstreamIcNS1_11char_traitsIcEENS1_9allocatorIcEEEE
_ZN7Iex_3_09ErangeExcC1Ev
_ZN7Iex_3_09ErangeExcC2EONSt3__112basic_stringIcNS1_11char_traitsIcEENS1_9allocatorIcEEEE
_ZN7Iex_3_09ErangeExcC2EOS0_
_ZN7Iex_3_09ErangeExcC2EPKc
_ZN7Iex_3_09ErangeExcC2ERKNSt3__112basic_stringIcNS1_11char_traitsIcEENS1_9allocatorIcEEEE
_ZN7Iex_3_09ErangeExcC2ERKS0_
_ZN7Iex_3_09ErangeExcC2ERNSt3__118basic_stringstreamIcNS1_11char_traitsIcEENS1_9allocatorIcEEEE
_ZN7Iex_3_09ErangeExcC2Ev
_ZN7Iex_3_09ErangeExcD0Ev
_ZN7Iex_3_09ErangeExcD1Ev
_ZN7Iex_3_09ErangeExcD2Ev
_ZN7Iex_3_09ErangeExcaSEOS0_
_ZN7Iex_3_09ErangeExcaSERS0_
_ZN7Iex_3_09EspipeExcC1EONSt3__112basic_stringIcNS1_11char_traitsIcEENS1_9allocatorIcEEEE
_ZN7Iex_3_09EspipeExcC1EOS0_
_ZN7Iex_3_09EspipeExcC1EPKc
_ZN7Iex_3_09EspipeExcC1ERKNSt3__112basic_stringIcNS1_11char_traitsIcEENS1_9allocatorIcEEEE
_ZN7Iex_3_09EspipeExcC1ERKS0_
_ZN7Iex_3_09EspipeExcC1ERNSt3__118basic_stringstreamIcNS1_11char_traitsIcEENS1_9allocatorIcEEEE
_ZN7Iex_3_09EspipeExcC1Ev
_ZN7Iex_3_09EspipeExcC2EONSt3__112basic_stringIcNS1_11char_traitsIcEENS1_9allocatorIcEEEE
_ZN7Iex_3_09EspipeExcC2EOS0_
_ZN7Iex_3_09EspipeExcC2EPKc
_ZN7Iex_3_09EspipeExcC2ERKNSt3__112basic_stringIcNS1_11char_traitsIcEENS1_9allocatorIcEEEE
_ZN7Iex_3_09EspipeExcC2ERKS0_
_ZN7Iex_3_09EspipeExcC2ERNSt3__118basic_stringstreamIcNS1_11char_traitsIcEENS1_9allocatorIcEEEE
_ZN7Iex_3_09EspipeExcC2Ev
_ZN7Iex_3_09EspipeExcD0Ev
_ZN7Iex_3_09EspipeExcD1Ev
_ZN7Iex_3_09EspipeExcD2Ev
_ZN7Iex_3_09EspipeExcaSEOS0_
_ZN7Iex_3_09EspipeExcaSERS0_
_ZN7Iex_3_09EsrmntExcC1EONSt3__112basic_stringIcNS1_11char_traitsIcEENS1_9allocatorIcEEEE
_ZN7Iex_3_09EsrmntExcC1EOS0_
_ZN7Iex_3_09EsrmntExcC1EPKc
_ZN7Iex_3_09EsrmntExcC1ERKNSt3__112basic_stringIcNS1_11char_traitsIcEENS1_9allocatorIcEEEE
_ZN7Iex_3_09EsrmntExcC1ERKS0_
_ZN7Iex_3_09EsrmntExcC1ERNSt3__118basic_stringstreamIcNS1_11char_traitsIcEENS1_9allocatorIcEEEE
_ZN7Iex_3_09EsrmntExcC1Ev
_ZN7Iex_3_09EsrmntExcC2EONSt3__112basic_stringIcNS1_11char_traitsIcEENS1_9allocatorIcEEEE
_ZN7Iex_3_09EsrmntExcC2EOS0_
_ZN7Iex_3_09EsrmntExcC2EPKc
_ZN7Iex_3_09EsrmntExcC2ERKNSt3__112basic_stringIcNS1_11char_traitsIcEENS1_9allocatorIcEEEE
_ZN7Iex_3_09EsrmntExcC2ERKS0_
_ZN7Iex_3_09EsrmntExcC2ERNSt3__118basic_stringstreamIcNS1_11char_traitsIcEENS1_9allocatorIcEEEE
_ZN7Iex_3_09EsrmntExcC2Ev
_ZN7Iex_3_09EsrmntExcD0Ev
_ZN7Iex_3_09EsrmntExcD1Ev
_ZN7Iex_3_09EsrmntExcD2Ev
_ZN7Iex_3_09EsrmntExcaSEOS0_
_ZN7Iex_3_09EsrmntExcaSERS0_
_ZN7Iex_3_09EstaleExcC1EONSt3__112basic_stringIcNS1_11char_traitsIcEENS1_9allocatorIcEEEE
_ZN7Iex_3_09EstaleExcC1EOS0_
_ZN7Iex_3_09EstaleExcC1EPKc
_ZN7Iex_3_09EstaleExcC1ERKNSt3__112basic_stringIcNS1_11char_traitsIcEENS1_9allocatorIcEEEE
_ZN7Iex_3_09EstaleExcC1ERKS0_
_ZN7Iex_3_09EstaleExcC1ERNSt3__118basic_stringstreamIcNS1_11char_traitsIcEENS1_9allocatorIcEEEE
_ZN7Iex_3_09EstaleExcC1Ev
_ZN7Iex_3_09EstaleExcC2EONSt3__112basic_stringIcNS1_11char_traitsIcEENS1_9allocatorIcEEEE
_ZN7Iex_3_09EstaleExcC2EOS0_
_ZN7Iex_3_09EstaleExcC2EPKc
_ZN7Iex_3_09EstaleExcC2ERKNSt3__112basic_stringIcNS1_11char_traitsIcEENS1_9allocatorIcEEEE
_ZN7Iex_3_09EstaleExcC2ERKS0_
_ZN7Iex_3_09EstaleExcC2ERNSt3__118basic_stringstreamIcNS1_11char_traitsIcEENS1_9allocatorIcEEEE
_ZN7Iex_3_09EstaleExcC2Ev
_ZN7Iex_3_09EstaleExcD0Ev
_ZN7Iex_3_09EstaleExcD1Ev
_ZN7Iex_3_09EstaleExcD2Ev
_ZN7Iex_3_09EstaleExcaSEOS0_
_ZN7Iex_3_09EstaleExcaSERS0_
_ZN7Iex_3_09EusersExcC1EONSt3__112basic_stringIcNS1_11char_traitsIcEENS1_9allocatorIcEEEE
_ZN7Iex_3_09EusersExcC1EOS0_
_ZN7Iex_3_09EusersExcC1EPKc
_ZN7Iex_3_09EusersExcC1ERKNSt3__112basic_stringIcNS1_11char_traitsIcEENS1_9allocatorIcEEEE
_ZN7Iex_3_09EusersExcC1ERKS0_
_ZN7Iex_3_09EusersExcC1ERNSt3__118basic_stringstreamIcNS1_11char_traitsIcEENS1_9allocatorIcEEEE
_ZN7Iex_3_09EusersExcC1Ev
_ZN7Iex_3_09EusersExcC2EONSt3__112basic_stringIcNS1_11char_traitsIcEENS1_9allocatorIcEEEE
_ZN7Iex_3_09EusersExcC2EOS0_
_ZN7Iex_3_09EusersExcC2EPKc
_ZN7Iex_3_09EusersExcC2ERKNSt3__112basic_stringIcNS1_11char_traitsIcEENS1_9allocatorIcEEEE
_ZN7Iex_3_09EusersExcC2ERKS0_
_ZN7Iex_3_09EusersExcC2ERNSt3__118basic_stringstreamIcNS1_11char_traitsIcEENS1_9allocatorIcEEEE
_ZN7Iex_3_09EusersExcC2Ev
_ZN7Iex_3_09EusersExcD0Ev
_ZN7Iex_3_09EusersExcD1Ev
_ZN7Iex_3_09EusersExcD2Ev
_ZN7Iex_3_09EusersExcaSEOS0_
_ZN7Iex_3_09EusersExcaSERS0_
_ZN7Iex_3_09ExfullExcC1EONSt3__112basic_stringIcNS1_11char_traitsIcEENS1_9allocatorIcEEEE
_ZN7Iex_3_09ExfullExcC1EOS0_
_ZN7Iex_3_09ExfullExcC1EPKc
_ZN7Iex_3_09ExfullExcC1ERKNSt3__112basic_stringIcNS1_11char_traitsIcEENS1_9allocatorIcEEEE
_ZN7Iex_3_09ExfullExcC1ERKS0_
_ZN7Iex_3_09ExfullExcC1ERNSt3__118basic_stringstreamIcNS1_11char_traitsIcEENS1_9allocatorIcEEEE
_ZN7Iex_3_09ExfullExcC1Ev
_ZN7Iex_3_09ExfullExcC2EONSt3__112basic_stringIcNS1_11char_traitsIcEENS1_9allocatorIcEEEE
_ZN7Iex_3_09ExfullExcC2EOS0_
_ZN7Iex_3_09ExfullExcC2EPKc
_ZN7Iex_3_09ExfullExcC2ERKNSt3__112basic_stringIcNS1_11char_traitsIcEENS1_9allocatorIcEEEE
_ZN7Iex_3_09ExfullExcC2ERKS0_
_ZN7Iex_3_09ExfullExcC2ERNSt3__118basic_stringstreamIcNS1_11char_traitsIcEENS1_9allocatorIcEEEE
_ZN7Iex_3_09ExfullExcC2Ev
_ZN7Iex_3_09ExfullExcD0Ev
_ZN7Iex_3_09ExfullExcD1Ev
_ZN7Iex_3_09ExfullExcD2Ev
_ZN7Iex_3_09ExfullExcaSEOS0_
_ZN7Iex_3_09ExfullExcaSERS0_
_ZN7Iex_3_09MathExcOn27handleOutstandingExceptionsEv
_ZN7Iex_3_09MathExcOnC1Ei
_ZN7Iex_3_09MathExcOnC2Ei
_ZN7Iex_3_09MathExcOnD1Ev
_ZN7Iex_3_09MathExcOnD2Ev
_ZN7Iex_3_09NoImplExcC1EONSt3__112basic_stringIcNS1_11char_traitsIcEENS1_9allocatorIcEEEE
_ZN7Iex_3_09NoImplExcC1EOS0_
_ZN7Iex_3_09NoImplExcC1EPKc
_ZN7Iex_3_09NoImplExcC1ERKNSt3__112basic_stringIcNS1_11char_traitsIcEENS1_9allocatorIcEEEE
_ZN7Iex_3_09NoImplExcC1ERKS0_
_ZN7Iex_3_09NoImplExcC1ERNSt3__118basic_stringstreamIcNS1_11char_traitsIcEENS1_9allocatorIcEEEE
_ZN7Iex_3_09NoImplExcC1Ev
_ZN7Iex_3_09NoImplExcC2EONSt3__112basic_stringIcNS1_11char_traitsIcEENS1_9allocatorIcEEEE
_ZN7Iex_3_09NoImplExcC2EOS0_
_ZN7Iex_3_09NoImplExcC2EPKc
_ZN7Iex_3_09NoImplExcC2ERKNSt3__112basic_stringIcNS1_11char_traitsIcEENS1_9allocatorIcEEEE
_ZN7Iex_3_09NoImplExcC2ERKS0_
_ZN7Iex_3_09NoImplExcC2ERNSt3__118basic_stringstreamIcNS1_11char_traitsIcEENS1_9allocatorIcEEEE
_ZN7Iex_3_09NoImplExcC2Ev
_ZN7Iex_3_09NoImplExcD0Ev
_ZN7Iex_3_09NoImplExcD1Ev
_ZN7Iex_3_09NoImplExcD2Ev
_ZN7Iex_3_09NoImplExcaSEOS0_
_ZN7Iex_3_09NoImplExcaSERS0_
_ZN7Iex_3_09mathExcOnEi
_ZNK7Iex_3_07BaseExc10stackTraceEv
_ZNK7Iex_3_07BaseExc4whatEv
_ZNK7Iex_3_07BaseExc7messageEv
