;
; Definition file of libOpenEXR-3_0.dll
; Automatic generated by gendef
; written by Kai Tietz 2008
;
LIBRARY "libOpenEXR-3_0.dll"
EXPORTS
ImfApplyLut
ImfCloseInputFile
ImfCloseOutputFile
ImfCloseTiledInputFile
ImfCloseTiledOutputFile
ImfCopyHeader
ImfDeleteHeader
ImfDeleteLut
ImfErrorMessage
ImfFloatToHalf
ImfFloatToHalfArray
ImfHalfToFloat
ImfHalfToFloatArray
ImfHeaderBox2fAttribute
ImfHeaderBox2iAttribute
ImfHeaderCompression
ImfHeaderDataWindow
ImfHeaderDisplayWindow
ImfHeaderDoubleAttribute
ImfHeaderFloatAttribute
ImfHeaderIntAttribute
ImfHeaderLineOrder
ImfHeaderM33fAttribute
ImfHeaderM44fAttribute
ImfHeaderPixelAspectRatio
ImfHeaderScreenWindowCenter
ImfHeaderScreenWindowWidth
ImfHeaderSetBox2fAttribute
ImfHeaderSetBox2iAttribute
ImfHeaderSetCompression
ImfHeaderSetDataWindow
ImfHeaderSetDisplayWindow
ImfHeaderSetDoubleAttribute
ImfHeaderSetFloatAttribute
ImfHeaderSetIntAttribute
ImfHeaderSetLineOrder
ImfHeaderSetM33fAttribute
ImfHeaderSetM44fAttribute
ImfHeaderSetPixelAspectRatio
ImfHeaderSetScreenWindowCenter
ImfHeaderSetScreenWindowWidth
ImfHeaderSetStringAttribute
ImfHeaderSetV2fAttribute
ImfHeaderSetV2iAttribute
ImfHeaderSetV3fAttribute
ImfHeaderSetV3iAttribute
ImfHeaderStringAttribute
ImfHeaderV2fAttribute
ImfHeaderV2iAttribute
ImfHeaderV3fAttribute
ImfHeaderV3iAttribute
ImfInputChannels
ImfInputFileName
ImfInputHeader
ImfInputReadPixels
ImfInputSetFrameBuffer
ImfNewHeader
ImfNewRound12logLut
ImfNewRoundNBitLut
ImfOpenInputFile
ImfOpenOutputFile
ImfOpenTiledInputFile
ImfOpenTiledOutputFile
ImfOutputChannels
ImfOutputCurrentScanLine
ImfOutputHeader
ImfOutputSetFrameBuffer
ImfOutputWritePixels
ImfTiledInputChannels
ImfTiledInputFileName
ImfTiledInputHeader
ImfTiledInputLevelMode
ImfTiledInputLevelRoundingMode
ImfTiledInputReadTile
ImfTiledInputReadTiles
ImfTiledInputSetFrameBuffer
ImfTiledInputTileXSize
ImfTiledInputTileYSize
ImfTiledOutputChannels
ImfTiledOutputHeader
ImfTiledOutputLevelMode
ImfTiledOutputLevelRoundingMode
ImfTiledOutputSetFrameBuffer
ImfTiledOutputTileXSize
ImfTiledOutputTileYSize
ImfTiledOutputWriteTile
ImfTiledOutputWriteTiles
_ZN7Imf_3_010Compressor12compressTileEPKciN9Imath_3_03BoxINS3_4Vec2IiEEEERS2_
_ZN7Imf_3_010Compressor14uncompressTileEPKciN9Imath_3_03BoxINS3_4Vec2IiEEEERS2_
_ZN7Imf_3_010CompressorC2ERKNS_6HeaderE
_ZN7Imf_3_010CompressorD0Ev
_ZN7Imf_3_010CompressorD1Ev
_ZN7Imf_3_010CompressorD2Ev
_ZN7Imf_3_010IDManifest10CUSTOMHASHE DATA
_ZN7Imf_3_010IDManifest10ID2_SCHEMEE DATA
_ZN7Imf_3_010IDManifest12MurmurHash32ERKNSt3__112basic_stringIcNS1_11char_traitsIcEENS1_9allocatorIcEEEE
_ZN7Imf_3_010IDManifest12MurmurHash32ERKNSt3__16vectorINS1_12basic_stringIcNS1_11char_traitsIcEENS1_9allocatorIcEEEENS6_IS8_EEEE
_ZN7Imf_3_010IDManifest12MurmurHash64ERKNSt3__112basic_stringIcNS1_11char_traitsIcEENS1_9allocatorIcEEEE
_ZN7Imf_3_010IDManifest12MurmurHash64ERKNSt3__16vectorINS1_12basic_stringIcNS1_11char_traitsIcEENS1_9allocatorIcEEEENS6_IS8_EEEE
_ZN7Imf_3_010IDManifest14MURMURHASH3_32E DATA
_ZN7Imf_3_010IDManifest14MURMURHASH3_64E DATA
_ZN7Imf_3_010IDManifest20ChannelGroupManifest10setChannelERKNSt3__112basic_stringIcNS2_11char_traitsIcEENS2_9allocatorIcEEEE
_ZN7Imf_3_010IDManifest20ChannelGroupManifest11getChannelsEv
_ZN7Imf_3_010IDManifest20ChannelGroupManifest11setChannelsERKNSt3__13setINS2_12basic_stringIcNS2_11char_traitsIcEENS2_9allocatorIcEEEENS2_4lessIS9_EENS7_IS9_EEEE
_ZN7Imf_3_010IDManifest20ChannelGroupManifest12setComponentERKNSt3__112basic_stringIcNS2_11char_traitsIcEENS2_9allocatorIcEEEE
_ZN7Imf_3_010IDManifest20ChannelGroupManifest13ConstIteratorC1ERKNS1_8IteratorE
_ZN7Imf_3_010IDManifest20ChannelGroupManifest13ConstIteratorC1ERKNSt3__120__map_const_iteratorINS3_21__tree_const_iteratorINS3_12__value_typeIyNS3_6vectorINS3_12basic_stringIcNS3_11char_traitsIcEENS3_9allocatorIcEEEENSB_ISD_EEEEEEPNS3_11__tree_nodeISG_PvEExEEEE
_ZN7Imf_3_010IDManifest20ChannelGroupManifest13ConstIteratorC1Ev
_ZN7Imf_3_010IDManifest20ChannelGroupManifest13ConstIteratorC2ERKNS1_8IteratorE
_ZN7Imf_3_010IDManifest20ChannelGroupManifest13ConstIteratorC2ERKNSt3__120__map_const_iteratorINS3_21__tree_const_iteratorINS3_12__value_typeIyNS3_6vectorINS3_12basic_stringIcNS3_11char_traitsIcEENS3_9allocatorIcEEEENSB_ISD_EEEEEEPNS3_11__tree_nodeISG_PvEExEEEE
_ZN7Imf_3_010IDManifest20ChannelGroupManifest13ConstIteratorC2Ev
_ZN7Imf_3_010IDManifest20ChannelGroupManifest13ConstIteratorppEv
_ZN7Imf_3_010IDManifest20ChannelGroupManifest13setComponentsERKNSt3__16vectorINS2_12basic_stringIcNS2_11char_traitsIcEENS2_9allocatorIcEEEENS7_IS9_EEEE
_ZN7Imf_3_010IDManifest20ChannelGroupManifest3endEv
_ZN7Imf_3_010IDManifest20ChannelGroupManifest4findEy
_ZN7Imf_3_010IDManifest20ChannelGroupManifest5beginEv
_ZN7Imf_3_010IDManifest20ChannelGroupManifest5eraseEy
_ZN7Imf_3_010IDManifest20ChannelGroupManifest6insertERKNSt3__112basic_stringIcNS2_11char_traitsIcEENS2_9allocatorIcEEEE
_ZN7Imf_3_010IDManifest20ChannelGroupManifest6insertERKNSt3__16vectorINS2_12basic_stringIcNS2_11char_traitsIcEENS2_9allocatorIcEEEENS7_IS9_EEEE
_ZN7Imf_3_010IDManifest20ChannelGroupManifest6insertEyRKNSt3__112basic_stringIcNS2_11char_traitsIcEENS2_9allocatorIcEEEE
_ZN7Imf_3_010IDManifest20ChannelGroupManifest6insertEyRKNSt3__16vectorINS2_12basic_stringIcNS2_11char_traitsIcEENS2_9allocatorIcEEEENS7_IS9_EEEE
_ZN7Imf_3_010IDManifest20ChannelGroupManifest8Iterator4textEv
_ZN7Imf_3_010IDManifest20ChannelGroupManifest8IteratorC1ERKNSt3__114__map_iteratorINS3_15__tree_iteratorINS3_12__value_typeIyNS3_6vectorINS3_12basic_stringIcNS3_11char_traitsIcEENS3_9allocatorIcEEEENSB_ISD_EEEEEEPNS3_11__tree_nodeISG_PvEExEEEE
_ZN7Imf_3_010IDManifest20ChannelGroupManifest8IteratorC1Ev
_ZN7Imf_3_010IDManifest20ChannelGroupManifest8IteratorC2ERKNSt3__114__map_iteratorINS3_15__tree_iteratorINS3_12__value_typeIyNS3_6vectorINS3_12basic_stringIcNS3_11char_traitsIcEENS3_9allocatorIcEEEENSB_ISD_EEEEEEPNS3_11__tree_nodeISG_PvEExEEEE
_ZN7Imf_3_010IDManifest20ChannelGroupManifest8IteratorC2Ev
_ZN7Imf_3_010IDManifest20ChannelGroupManifest8IteratorppEv
_ZN7Imf_3_010IDManifest20ChannelGroupManifestC1Ev
_ZN7Imf_3_010IDManifest20ChannelGroupManifestC2Ev
_ZN7Imf_3_010IDManifest20ChannelGroupManifestixEy
_ZN7Imf_3_010IDManifest20ChannelGroupManifestlsERKNSt3__112basic_stringIcNS2_11char_traitsIcEENS2_9allocatorIcEEEE
_ZN7Imf_3_010IDManifest20ChannelGroupManifestlsEy
_ZN7Imf_3_010IDManifest3addERKNS0_20ChannelGroupManifestE
_ZN7Imf_3_010IDManifest3addERKNSt3__112basic_stringIcNS1_11char_traitsIcEENS1_9allocatorIcEEEE
_ZN7Imf_3_010IDManifest3addERKNSt3__13setINS1_12basic_stringIcNS1_11char_traitsIcEENS1_9allocatorIcEEEENS1_4lessIS8_EENS6_IS8_EEEE
_ZN7Imf_3_010IDManifest5mergeERKS0_
_ZN7Imf_3_010IDManifest7UNKNOWNE DATA
_ZN7Imf_3_010IDManifest9ID_SCHEMEE DATA
_ZN7Imf_3_010IDManifest9NOTHASHEDE DATA
_ZN7Imf_3_010IDManifestC1EPKcS2_
_ZN7Imf_3_010IDManifestC1ERKNS_20CompressedIDManifestE
_ZN7Imf_3_010IDManifestC1Ev
_ZN7Imf_3_010IDManifestC2EPKcS2_
_ZN7Imf_3_010IDManifestC2ERKNS_20CompressedIDManifestE
_ZN7Imf_3_010IDManifestC2Ev
_ZN7Imf_3_010IDManifestixEy
_ZN7Imf_3_010LatLongMap13pixelPositionERKN9Imath_3_03BoxINS1_4Vec2IiEEEERKNS1_4Vec3IfEE
_ZN7Imf_3_010LatLongMap13pixelPositionERKN9Imath_3_03BoxINS1_4Vec2IiEEEERKNS3_IfEE
_ZN7Imf_3_010LatLongMap7latLongERKN9Imath_3_03BoxINS1_4Vec2IiEEEERKNS3_IfEE
_ZN7Imf_3_010LatLongMap7latLongERKN9Imath_3_04Vec3IfEE
_ZN7Imf_3_010LatLongMap9directionERKN9Imath_3_03BoxINS1_4Vec2IiEEEERKNS3_IfEE
_ZN7Imf_3_010OutputFile10copyPixelsERNS_9InputFileE
_ZN7Imf_3_010OutputFile10copyPixelsERNS_9InputPartE
_ZN7Imf_3_010OutputFile11writePixelsEi
_ZN7Imf_3_010OutputFile13breakScanLineEiiic
_ZN7Imf_3_010OutputFile14setFrameBufferERKNS_11FrameBufferE
_ZN7Imf_3_010OutputFile18updatePreviewImageEPKNS_11PreviewRgbaE
_ZN7Imf_3_010OutputFileC1EPKcRKNS_6HeaderEi
_ZN7Imf_3_010OutputFileC1ERNS_7OStreamERKNS_6HeaderEi
_ZN7Imf_3_010OutputFileC2EPKcRKNS_6HeaderEi
_ZN7Imf_3_010OutputFileC2ERNS_7OStreamERKNS_6HeaderEi
_ZN7Imf_3_010OutputFileD0Ev
_ZN7Imf_3_010OutputFileD1Ev
_ZN7Imf_3_010OutputFileD2Ev
_ZN7Imf_3_010OutputPart10copyPixelsERNS_9InputFileE
_ZN7Imf_3_010OutputPart10copyPixelsERNS_9InputPartE
_ZN7Imf_3_010OutputPart11writePixelsEi
_ZN7Imf_3_010OutputPart13breakScanLineEiiic
_ZN7Imf_3_010OutputPart14setFrameBufferERKNS_11FrameBufferE
_ZN7Imf_3_010OutputPart18updatePreviewImageEPKNS_11PreviewRgbaE
_ZN7Imf_3_010OutputPartC1ERNS_19MultiPartOutputFileEi
_ZN7Imf_3_010OutputPartC2ERNS_19MultiPartOutputFileEi
_ZN7Imf_3_010addCapDateERNS_6HeaderERKNSt3__112basic_stringIcNS2_11char_traitsIcEENS2_9allocatorIcEEEE
_ZN7Imf_3_010addExpTimeERNS_6HeaderERKf
_ZN7Imf_3_010addKeyCodeERNS_6HeaderERKNS_7KeyCodeE
_ZN7Imf_3_010halfToUintEN9Imath_3_04halfE
_ZN7Imf_3_010hasCapDateERKNS_6HeaderE
_ZN7Imf_3_010hasExpTimeERKNS_6HeaderE
_ZN7Imf_3_010hasKeyCodeERKNS_6HeaderE
_ZN7Imf_3_010idManifestERKNS_6HeaderE
_ZN7Imf_3_010idManifestERNS_6HeaderE
_ZN7Imf_3_010isDeepDataERKNSt3__112basic_stringIcNS0_11char_traitsIcEENS0_9allocatorIcEEEE
_ZN7Imf_3_010isImfMagicEPKc
_ZN7Imf_3_010numSamplesEiii
_ZN7Imf_3_010round12logEN9Imath_3_04halfE
_ZN7Imf_3_010uintToHalfEj
_ZN7Imf_3_010wav2DecodeEPtiiiit
_ZN7Imf_3_010wav2EncodeEPtiiiit
_ZN7Imf_3_010worldToNDCERKNS_6HeaderE
_ZN7Imf_3_010worldToNDCERNS_6HeaderE
_ZN7Imf_3_011ChannelList11findChannelEPKc
_ZN7Imf_3_011ChannelList11findChannelERKNSt3__112basic_stringIcNS1_11char_traitsIcEENS1_9allocatorIcEEEE
_ZN7Imf_3_011ChannelList13ConstIteratorC1ERKNS0_8IteratorE
_ZN7Imf_3_011ChannelList13ConstIteratorC1ERKNSt3__120__map_const_iteratorINS2_21__tree_const_iteratorINS2_12__value_typeINS_4NameENS_7ChannelEEEPNS2_11__tree_nodeIS8_PvEExEEEE
_ZN7Imf_3_011ChannelList13ConstIteratorC1Ev
_ZN7Imf_3_011ChannelList13ConstIteratorC2ERKNS0_8IteratorE
_ZN7Imf_3_011ChannelList13ConstIteratorC2ERKNSt3__120__map_const_iteratorINS2_21__tree_const_iteratorINS2_12__value_typeINS_4NameENS_7ChannelEEEPNS2_11__tree_nodeIS8_PvEExEEEE
_ZN7Imf_3_011ChannelList13ConstIteratorC2Ev
_ZN7Imf_3_011ChannelList13ConstIteratorppEi
_ZN7Imf_3_011ChannelList13ConstIteratorppEv
_ZN7Imf_3_011ChannelList15channelsInLayerERKNSt3__112basic_stringIcNS1_11char_traitsIcEENS1_9allocatorIcEEEERNS0_8IteratorESB_
_ZN7Imf_3_011ChannelList18channelsWithPrefixEPKcRNS0_8IteratorES4_
_ZN7Imf_3_011ChannelList18channelsWithPrefixERKNSt3__112basic_stringIcNS1_11char_traitsIcEENS1_9allocatorIcEEEERNS0_8IteratorESB_
_ZN7Imf_3_011ChannelList3endEv
_ZN7Imf_3_011ChannelList4findEPKc
_ZN7Imf_3_011ChannelList4findERKNSt3__112basic_stringIcNS1_11char_traitsIcEENS1_9allocatorIcEEEE
_ZN7Imf_3_011ChannelList5beginEv
_ZN7Imf_3_011ChannelList6insertEPKcRKNS_7ChannelE
_ZN7Imf_3_011ChannelList6insertERKNSt3__112basic_stringIcNS1_11char_traitsIcEENS1_9allocatorIcEEEERKNS_7ChannelE
_ZN7Imf_3_011ChannelList8IteratorC1ERKNSt3__114__map_iteratorINS2_15__tree_iteratorINS2_12__value_typeINS_4NameENS_7ChannelEEEPNS2_11__tree_nodeIS8_PvEExEEEE
_ZN7Imf_3_011ChannelList8IteratorC1Ev
_ZN7Imf_3_011ChannelList8IteratorC2ERKNSt3__114__map_iteratorINS2_15__tree_iteratorINS2_12__value_typeINS_4NameENS_7ChannelEEEPNS2_11__tree_nodeIS8_PvEExEEEE
_ZN7Imf_3_011ChannelList8IteratorC2Ev
_ZN7Imf_3_011ChannelList8IteratorppEi
_ZN7Imf_3_011ChannelList8IteratorppEv
_ZN7Imf_3_011ChannelListixEPKc
_ZN7Imf_3_011ChannelListixERKNSt3__112basic_stringIcNS1_11char_traitsIcEENS1_9allocatorIcEEEE
_ZN7Imf_3_011FrameBuffer13ConstIteratorC1ERKNS0_8IteratorE
_ZN7Imf_3_011FrameBuffer13ConstIteratorC1ERKNSt3__120__map_const_iteratorINS2_21__tree_const_iteratorINS2_12__value_typeINS_4NameENS_5SliceEEEPNS2_11__tree_nodeIS8_PvEExEEEE
_ZN7Imf_3_011FrameBuffer13ConstIteratorC1Ev
_ZN7Imf_3_011FrameBuffer13ConstIteratorC2ERKNS0_8IteratorE
_ZN7Imf_3_011FrameBuffer13ConstIteratorC2ERKNSt3__120__map_const_iteratorINS2_21__tree_const_iteratorINS2_12__value_typeINS_4NameENS_5SliceEEEPNS2_11__tree_nodeIS8_PvEExEEEE
_ZN7Imf_3_011FrameBuffer13ConstIteratorC2Ev
_ZN7Imf_3_011FrameBuffer13ConstIteratorppEi
_ZN7Imf_3_011FrameBuffer13ConstIteratorppEv
_ZN7Imf_3_011FrameBuffer3endEv
_ZN7Imf_3_011FrameBuffer4findEPKc
_ZN7Imf_3_011FrameBuffer4findERKNSt3__112basic_stringIcNS1_11char_traitsIcEENS1_9allocatorIcEEEE
_ZN7Imf_3_011FrameBuffer5beginEv
_ZN7Imf_3_011FrameBuffer6insertEPKcRKNS_5SliceE
_ZN7Imf_3_011FrameBuffer6insertERKNSt3__112basic_stringIcNS1_11char_traitsIcEENS1_9allocatorIcEEEERKNS_5SliceE
_ZN7Imf_3_011FrameBuffer8IteratorC1ERKNSt3__114__map_iteratorINS2_15__tree_iteratorINS2_12__value_typeINS_4NameENS_5SliceEEEPNS2_11__tree_nodeIS8_PvEExEEEE
_ZN7Imf_3_011FrameBuffer8IteratorC1Ev
_ZN7Imf_3_011FrameBuffer8IteratorC2ERKNSt3__114__map_iteratorINS2_15__tree_iteratorINS2_12__value_typeINS_4NameENS_5SliceEEEPNS2_11__tree_nodeIS8_PvEExEEEE
_ZN7Imf_3_011FrameBuffer8IteratorC2Ev
_ZN7Imf_3_011FrameBuffer8IteratorppEi
_ZN7Imf_3_011FrameBuffer8IteratorppEv
_ZN7Imf_3_011FrameBuffer9findSliceEPKc
_ZN7Imf_3_011FrameBuffer9findSliceERKNSt3__112basic_stringIcNS1_11char_traitsIcEENS1_9allocatorIcEEEE
_ZN7Imf_3_011FrameBufferixEPKc
_ZN7Imf_3_011FrameBufferixERKNSt3__112basic_stringIcNS1_11char_traitsIcEENS1_9allocatorIcEEEE
_ZN7Imf_3_011StdIFStream4readEPci
_ZN7Imf_3_011StdIFStream5clearEv
_ZN7Imf_3_011StdIFStream5seekgEy
_ZN7Imf_3_011StdIFStream5tellgEv
_ZN7Imf_3_011StdIFStreamC1EPKc
_ZN7Imf_3_011StdIFStreamC1ERNSt3__114basic_ifstreamIcNS1_11char_traitsIcEEEEPKc
_ZN7Imf_3_011StdIFStreamC2EPKc
_ZN7Imf_3_011StdIFStreamC2ERNSt3__114basic_ifstreamIcNS1_11char_traitsIcEEEEPKc
_ZN7Imf_3_011StdIFStreamD0Ev
_ZN7Imf_3_011StdIFStreamD1Ev
_ZN7Imf_3_011StdIFStreamD2Ev
_ZN7Imf_3_011StdISStream3strERKNSt3__112basic_stringIcNS1_11char_traitsIcEENS1_9allocatorIcEEEE
_ZN7Imf_3_011StdISStream4readEPci
_ZN7Imf_3_011StdISStream5clearEv
_ZN7Imf_3_011StdISStream5seekgEy
_ZN7Imf_3_011StdISStream5tellgEv
_ZN7Imf_3_011StdISStreamC1Ev
_ZN7Imf_3_011StdISStreamC2Ev
_ZN7Imf_3_011StdISStreamD0Ev
_ZN7Imf_3_011StdISStreamD1Ev
_ZN7Imf_3_011StdISStreamD2Ev
_ZN7Imf_3_011StdOFStream5seekpEy
_ZN7Imf_3_011StdOFStream5tellpEv
_ZN7Imf_3_011StdOFStream5writeEPKci
_ZN7Imf_3_011StdOFStreamC1EPKc
_ZN7Imf_3_011StdOFStreamC1ERNSt3__114basic_ofstreamIcNS1_11char_traitsIcEEEEPKc
_ZN7Imf_3_011StdOFStreamC2EPKc
_ZN7Imf_3_011StdOFStreamC2ERNSt3__114basic_ofstreamIcNS1_11char_traitsIcEEEEPKc
_ZN7Imf_3_011StdOFStreamD0Ev
_ZN7Imf_3_011StdOFStreamD1Ev
_ZN7Imf_3_011StdOFStreamD2Ev
_ZN7Imf_3_011StdOSStream5seekpEy
_ZN7Imf_3_011StdOSStream5tellpEv
_ZN7Imf_3_011StdOSStream5writeEPKci
_ZN7Imf_3_011StdOSStreamC1Ev
_ZN7Imf_3_011StdOSStreamC2Ev
_ZN7Imf_3_011StdOSStreamD0Ev
_ZN7Imf_3_011StdOSStreamD1Ev
_ZN7Imf_3_011StdOSStreamD2Ev
_ZN7Imf_3_011TileOffsets8readFromENSt3__16vectorIyNS1_9allocatorIyEEEERb
_ZN7Imf_3_011TileOffsets8readFromERNS_7IStreamERbbb
_ZN7Imf_3_011TileOffsetsC1ENS_9LevelModeEiiPKiS3_
_ZN7Imf_3_011TileOffsetsC2ENS_9LevelModeEiiPKiS3_
_ZN7Imf_3_011TileOffsetsclEiii
_ZN7Imf_3_011TileOffsetsclEiiii
_ZN7Imf_3_011addAltitudeERNS_6HeaderERKf
_ZN7Imf_3_011addApertureERNS_6HeaderERKf
_ZN7Imf_3_011addCommentsERNS_6HeaderERKNSt3__112basic_stringIcNS2_11char_traitsIcEENS2_9allocatorIcEEEE
_ZN7Imf_3_011addIsoSpeedERNS_6HeaderERKf
_ZN7Imf_3_011addLatitudeERNS_6HeaderERKf
_ZN7Imf_3_011addTimeCodeERNS_6HeaderERKNS_8TimeCodeE
_ZN7Imf_3_011addXDensityERNS_6HeaderERKf
_ZN7Imf_3_011floatToHalfEf
_ZN7Imf_3_011floatToUintEf
_ZN7Imf_3_011hasAltitudeERKNS_6HeaderE
_ZN7Imf_3_011hasApertureERKNS_6HeaderE
_ZN7Imf_3_011hasCommentsERKNS_6HeaderE
_ZN7Imf_3_011hasIsoSpeedERKNS_6HeaderE
_ZN7Imf_3_011hasLatitudeERKNS_6HeaderE
_ZN7Imf_3_011hasTimeCodeERKNS_6HeaderE
_ZN7Imf_3_011hasXDensityERKNS_6HeaderE
_ZN7Imf_3_011hufCompressEPKtiPc
_ZN7Imf_3_011rleCompressEiPKcPa
_ZN7Imf_3_011skipChannelERPKcNS_9PixelTypeEy
_ZN7Imf_3_012PreviewImageC1ERKS0_
_ZN7Imf_3_012PreviewImageC1EjjPKNS_11PreviewRgbaE
_ZN7Imf_3_012PreviewImageC2ERKS0_
_ZN7Imf_3_012PreviewImageC2EjjPKNS_11PreviewRgbaE
_ZN7Imf_3_012PreviewImageD1Ev
_ZN7Imf_3_012PreviewImageD2Ev
_ZN7Imf_3_012PreviewImageaSERKS0_
_ZN7Imf_3_012addLongitudeERNS_6HeaderERKf
_ZN7Imf_3_012addMultiViewERNS_6HeaderERKNSt3__16vectorINS2_12basic_stringIcNS2_11char_traitsIcEENS2_9allocatorIcEEEENS7_IS9_EEEE
_ZN7Imf_3_012addUtcOffsetERNS_6HeaderERKf
_ZN7Imf_3_012addWrapmodesERNS_6HeaderERKNSt3__112basic_stringIcNS2_11char_traitsIcEENS2_9allocatorIcEEEE
_ZN7Imf_3_012hasLongitudeERKNS_6HeaderE
_ZN7Imf_3_012hasMultiViewERKNS_6HeaderE
_ZN7Imf_3_012hasUtcOffsetERKNS_6HeaderE
_ZN7Imf_3_012hasWrapmodesERKNS_6HeaderE
_ZN7Imf_3_013AcesInputFile10readPixelsEi
_ZN7Imf_3_013AcesInputFile10readPixelsEii
_ZN7Imf_3_013AcesInputFile14setFrameBufferEPNS_4RgbaEyy
_ZN7Imf_3_013AcesInputFileC1ERKNSt3__112basic_stringIcNS1_11char_traitsIcEENS1_9allocatorIcEEEEi
_ZN7Imf_3_013AcesInputFileC1ERNS_7IStreamEi
_ZN7Imf_3_013AcesInputFileC2ERKNSt3__112basic_stringIcNS1_11char_traitsIcEENS1_9allocatorIcEEEEi
_ZN7Imf_3_013AcesInputFileC2ERNS_7IStreamEi
_ZN7Imf_3_013AcesInputFileD0Ev
_ZN7Imf_3_013AcesInputFileD1Ev
_ZN7Imf_3_013AcesInputFileD2Ev
_ZN7Imf_3_013RgbaInputFile10readPixelsEi
_ZN7Imf_3_013RgbaInputFile10readPixelsEii
_ZN7Imf_3_013RgbaInputFile12setLayerNameERKNSt3__112basic_stringIcNS1_11char_traitsIcEENS1_9allocatorIcEEEE
_ZN7Imf_3_013RgbaInputFile14setFrameBufferEPNS_4RgbaEyy
_ZN7Imf_3_013RgbaInputFileC1EPKcRKNSt3__112basic_stringIcNS3_11char_traitsIcEENS3_9allocatorIcEEEEi
_ZN7Imf_3_013RgbaInputFileC1EPKci
_ZN7Imf_3_013RgbaInputFileC1ERNS_7IStreamERKNSt3__112basic_stringIcNS3_11char_traitsIcEENS3_9allocatorIcEEEEi
_ZN7Imf_3_013RgbaInputFileC1ERNS_7IStreamEi
_ZN7Imf_3_013RgbaInputFileC2EPKcRKNSt3__112basic_stringIcNS3_11char_traitsIcEENS3_9allocatorIcEEEEi
_ZN7Imf_3_013RgbaInputFileC2EPKci
_ZN7Imf_3_013RgbaInputFileC2ERNS_7IStreamERKNSt3__112basic_stringIcNS3_11char_traitsIcEENS3_9allocatorIcEEEEi
_ZN7Imf_3_013RgbaInputFileC2ERNS_7IStreamEi
_ZN7Imf_3_013RgbaInputFileD0Ev
_ZN7Imf_3_013RgbaInputFileD1Ev
_ZN7Imf_3_013RgbaInputFileD2Ev
_ZN7Imf_3_013addIDManifestERNS_6HeaderERKNS_20CompressedIDManifestE
_ZN7Imf_3_013addWorldToNDCERNS_6HeaderERKN9Imath_3_08Matrix44IfEE
_ZN7Imf_3_013defaultFormatEPNS_10CompressorE
_ZN7Imf_3_013guessExactFpsERKNS_8RationalE
_ZN7Imf_3_013guessExactFpsEd
_ZN7Imf_3_013hasIDManifestERKNS_6HeaderE
_ZN7Imf_3_013hasWorldToNDCERKNS_6HeaderE
_ZN7Imf_3_013hufUncompressEPKciPti
_ZN7Imf_3_013isOpenExrFileEPKc
_ZN7Imf_3_013isOpenExrFileEPKcRb
_ZN7Imf_3_013isOpenExrFileEPKcRbS2_
_ZN7Imf_3_013isOpenExrFileEPKcRbS2_S2_
_ZN7Imf_3_013isOpenExrFileERNS_7IStreamE
_ZN7Imf_3_013isOpenExrFileERNS_7IStreamERb
_ZN7Imf_3_013isOpenExrFileERNS_7IStreamERbS2_
_ZN7Imf_3_013isOpenExrFileERNS_7IStreamERbS2_S2_
_ZN7Imf_3_013newCompressorENS_11CompressionEyRKNS_6HeaderE
_ZN7Imf_3_013pixelTypeSizeENS_9PixelTypeE
_ZN7Imf_3_013rleUncompressEiiPKaPc
_ZN7Imf_3_013usesLongNamesERKNS_6HeaderE
_ZN7Imf_3_013worldToCameraERKNS_6HeaderE
_ZN7Imf_3_013worldToCameraERNS_6HeaderE
_ZN7Imf_3_014AcesOutputFile11writePixelsEi
_ZN7Imf_3_014AcesOutputFile14setFrameBufferEPKNS_4RgbaEyy
_ZN7Imf_3_014AcesOutputFile18updatePreviewImageEPKNS_11PreviewRgbaE
_ZN7Imf_3_014AcesOutputFileC1ERKNSt3__112basic_stringIcNS1_11char_traitsIcEENS1_9allocatorIcEEEERKN9Imath_3_03BoxINSA_4Vec2IiEEEESG_NS_12RgbaChannelsEfNSC_IfEEfNS_9LineOrderENS_11CompressionEi
_ZN7Imf_3_014AcesOutputFileC1ERKNSt3__112basic_stringIcNS1_11char_traitsIcEENS1_9allocatorIcEEEERKNS_6HeaderENS_12RgbaChannelsEi
_ZN7Imf_3_014AcesOutputFileC1ERKNSt3__112basic_stringIcNS1_11char_traitsIcEENS1_9allocatorIcEEEEiiNS_12RgbaChannelsEfN9Imath_3_04Vec2IfEEfNS_9LineOrderENS_11CompressionEi
_ZN7Imf_3_014AcesOutputFileC1ERNS_7OStreamERKNS_6HeaderENS_12RgbaChannelsEi
_ZN7Imf_3_014AcesOutputFileC2ERKNSt3__112basic_stringIcNS1_11char_traitsIcEENS1_9allocatorIcEEEERKN9Imath_3_03BoxINSA_4Vec2IiEEEESG_NS_12RgbaChannelsEfNSC_IfEEfNS_9LineOrderENS_11CompressionEi
_ZN7Imf_3_014AcesOutputFileC2ERKNSt3__112basic_stringIcNS1_11char_traitsIcEENS1_9allocatorIcEEEERKNS_6HeaderENS_12RgbaChannelsEi
_ZN7Imf_3_014AcesOutputFileC2ERKNSt3__112basic_stringIcNS1_11char_traitsIcEENS1_9allocatorIcEEEEiiNS_12RgbaChannelsEfN9Imath_3_04Vec2IfEEfNS_9LineOrderENS_11CompressionEi
_ZN7Imf_3_014AcesOutputFileC2ERNS_7OStreamERKNS_6HeaderENS_12RgbaChannelsEi
_ZN7Imf_3_014AcesOutputFileD0Ev
_ZN7Imf_3_014AcesOutputFileD1Ev
_ZN7Imf_3_014AcesOutputFileD2Ev
_ZN7Imf_3_014ChromaticitiesC1ERKN9Imath_3_04Vec2IfEES5_S5_S5_
_ZN7Imf_3_014ChromaticitiesC2ERKN9Imath_3_04Vec2IfEES5_S5_S5_
_ZN7Imf_3_014RgbaOutputFile11writePixelsEi
_ZN7Imf_3_014RgbaOutputFile13breakScanLineEiiic
_ZN7Imf_3_014RgbaOutputFile13setYCRoundingEjj
_ZN7Imf_3_014RgbaOutputFile14setFrameBufferEPKNS_4RgbaEyy
_ZN7Imf_3_014RgbaOutputFile18updatePreviewImageEPKNS_11PreviewRgbaE
_ZN7Imf_3_014RgbaOutputFileC1EPKcRKN9Imath_3_03BoxINS3_4Vec2IiEEEES9_NS_12RgbaChannelsEfNS5_IfEEfNS_9LineOrderENS_11CompressionEi
_ZN7Imf_3_014RgbaOutputFileC1EPKcRKNS_6HeaderENS_12RgbaChannelsEi
_ZN7Imf_3_014RgbaOutputFileC1EPKciiNS_12RgbaChannelsEfN9Imath_3_04Vec2IfEEfNS_9LineOrderENS_11CompressionEi
_ZN7Imf_3_014RgbaOutputFileC1ERNS_7OStreamERKNS_6HeaderENS_12RgbaChannelsEi
_ZN7Imf_3_014RgbaOutputFileC2EPKcRKN9Imath_3_03BoxINS3_4Vec2IiEEEES9_NS_12RgbaChannelsEfNS5_IfEEfNS_9LineOrderENS_11CompressionEi
_ZN7Imf_3_014RgbaOutputFileC2EPKcRKNS_6HeaderENS_12RgbaChannelsEi
_ZN7Imf_3_014RgbaOutputFileC2EPKciiNS_12RgbaChannelsEfN9Imath_3_04Vec2IfEEfNS_9LineOrderENS_11CompressionEi
_ZN7Imf_3_014RgbaOutputFileC2ERNS_7OStreamERKNS_6HeaderENS_12RgbaChannelsEi
_ZN7Imf_3_014RgbaOutputFileD0Ev
_ZN7Imf_3_014RgbaOutputFileD1Ev
_ZN7Imf_3_014RgbaOutputFileD2Ev
_ZN7Imf_3_014TiledInputFile11rawTileDataERiS1_S1_S1_RPKcS1_
_ZN7Imf_3_014TiledInputFile14setFrameBufferERKNS_11FrameBufferE
_ZN7Imf_3_014TiledInputFile8readTileEiii
_ZN7Imf_3_014TiledInputFile8readTileEiiii
_ZN7Imf_3_014TiledInputFile9readTilesEiiiii
_ZN7Imf_3_014TiledInputFile9readTilesEiiiiii
_ZN7Imf_3_014TiledInputFileC1EPKci
_ZN7Imf_3_014TiledInputFileC1ERNS_7IStreamEi
_ZN7Imf_3_014TiledInputFileC2EPKci
_ZN7Imf_3_014TiledInputFileC2ERNS_7IStreamEi
_ZN7Imf_3_014TiledInputFileD0Ev
_ZN7Imf_3_014TiledInputFileD1Ev
_ZN7Imf_3_014TiledInputFileD2Ev
_ZN7Imf_3_014TiledInputPart11rawTileDataERiS1_S1_S1_RPKcS1_
_ZN7Imf_3_014TiledInputPart14setFrameBufferERKNS_11FrameBufferE
_ZN7Imf_3_014TiledInputPart8readTileEiii
_ZN7Imf_3_014TiledInputPart8readTileEiiii
_ZN7Imf_3_014TiledInputPart9readTilesEiiiii
_ZN7Imf_3_014TiledInputPart9readTilesEiiiiii
_ZN7Imf_3_014TiledInputPartC1ERNS_18MultiPartInputFileEi
_ZN7Imf_3_014TiledInputPartC2ERNS_18MultiPartInputFileEi
_ZN7Imf_3_014TypedAttributeIN9Imath_3_03BoxINS1_4Vec2IfEEEEE13copyValueFromERKNS_9AttributeE
_ZN7Imf_3_014TypedAttributeIN9Imath_3_03BoxINS1_4Vec2IfEEEEE14staticTypeNameEv
_ZN7Imf_3_014TypedAttributeIN9Imath_3_03BoxINS1_4Vec2IfEEEEE16makeNewAttributeEv
_ZN7Imf_3_014TypedAttributeIN9Imath_3_03BoxINS1_4Vec2IfEEEEE21registerAttributeTypeEv
_ZN7Imf_3_014TypedAttributeIN9Imath_3_03BoxINS1_4Vec2IfEEEEE23unRegisterAttributeTypeEv
_ZN7Imf_3_014TypedAttributeIN9Imath_3_03BoxINS1_4Vec2IfEEEEE4castEPKNS_9AttributeE
_ZN7Imf_3_014TypedAttributeIN9Imath_3_03BoxINS1_4Vec2IfEEEEE4castEPNS_9AttributeE
_ZN7Imf_3_014TypedAttributeIN9Imath_3_03BoxINS1_4Vec2IfEEEEE4castERKNS_9AttributeE
_ZN7Imf_3_014TypedAttributeIN9Imath_3_03BoxINS1_4Vec2IfEEEEE4castERNS_9AttributeE
_ZN7Imf_3_014TypedAttributeIN9Imath_3_03BoxINS1_4Vec2IfEEEEE5valueEv
_ZN7Imf_3_014TypedAttributeIN9Imath_3_03BoxINS1_4Vec2IfEEEEEC1ERKS5_
_ZN7Imf_3_014TypedAttributeIN9Imath_3_03BoxINS1_4Vec2IfEEEEEC2ERKS5_
_ZN7Imf_3_014TypedAttributeIN9Imath_3_03BoxINS1_4Vec2IfEEEEED0Ev
_ZN7Imf_3_014TypedAttributeIN9Imath_3_03BoxINS1_4Vec2IfEEEEED1Ev
_ZN7Imf_3_014TypedAttributeIN9Imath_3_03BoxINS1_4Vec2IfEEEEED2Ev
_ZN7Imf_3_014TypedAttributeIN9Imath_3_03BoxINS1_4Vec2IiEEEEE13copyValueFromERKNS_9AttributeE
_ZN7Imf_3_014TypedAttributeIN9Imath_3_03BoxINS1_4Vec2IiEEEEE14staticTypeNameEv
_ZN7Imf_3_014TypedAttributeIN9Imath_3_03BoxINS1_4Vec2IiEEEEE16makeNewAttributeEv
_ZN7Imf_3_014TypedAttributeIN9Imath_3_03BoxINS1_4Vec2IiEEEEE21registerAttributeTypeEv
_ZN7Imf_3_014TypedAttributeIN9Imath_3_03BoxINS1_4Vec2IiEEEEE23unRegisterAttributeTypeEv
_ZN7Imf_3_014TypedAttributeIN9Imath_3_03BoxINS1_4Vec2IiEEEEE4castEPKNS_9AttributeE
_ZN7Imf_3_014TypedAttributeIN9Imath_3_03BoxINS1_4Vec2IiEEEEE4castEPNS_9AttributeE
_ZN7Imf_3_014TypedAttributeIN9Imath_3_03BoxINS1_4Vec2IiEEEEE4castERKNS_9AttributeE
_ZN7Imf_3_014TypedAttributeIN9Imath_3_03BoxINS1_4Vec2IiEEEEE4castERNS_9AttributeE
_ZN7Imf_3_014TypedAttributeIN9Imath_3_03BoxINS1_4Vec2IiEEEEE5valueEv
_ZN7Imf_3_014TypedAttributeIN9Imath_3_03BoxINS1_4Vec2IiEEEEEC1ERKS5_
_ZN7Imf_3_014TypedAttributeIN9Imath_3_03BoxINS1_4Vec2IiEEEEEC2ERKS5_
_ZN7Imf_3_014TypedAttributeIN9Imath_3_03BoxINS1_4Vec2IiEEEEED0Ev
_ZN7Imf_3_014TypedAttributeIN9Imath_3_03BoxINS1_4Vec2IiEEEEED1Ev
_ZN7Imf_3_014TypedAttributeIN9Imath_3_03BoxINS1_4Vec2IiEEEEED2Ev
_ZN7Imf_3_014TypedAttributeIN9Imath_3_04Vec2IdEEE13copyValueFromERKNS_9AttributeE
_ZN7Imf_3_014TypedAttributeIN9Imath_3_04Vec2IdEEE14staticTypeNameEv
_ZN7Imf_3_014TypedAttributeIN9Imath_3_04Vec2IdEEE16makeNewAttributeEv
_ZN7Imf_3_014TypedAttributeIN9Imath_3_04Vec2IdEEE21registerAttributeTypeEv
_ZN7Imf_3_014TypedAttributeIN9Imath_3_04Vec2IdEEE23unRegisterAttributeTypeEv
_ZN7Imf_3_014TypedAttributeIN9Imath_3_04Vec2IdEEE4castEPKNS_9AttributeE
_ZN7Imf_3_014TypedAttributeIN9Imath_3_04Vec2IdEEE4castEPNS_9AttributeE
_ZN7Imf_3_014TypedAttributeIN9Imath_3_04Vec2IdEEE4castERKNS_9AttributeE
_ZN7Imf_3_014TypedAttributeIN9Imath_3_04Vec2IdEEE4castERNS_9AttributeE
_ZN7Imf_3_014TypedAttributeIN9Imath_3_04Vec2IdEEE5valueEv
_ZN7Imf_3_014TypedAttributeIN9Imath_3_04Vec2IdEEEC1ERKS3_
_ZN7Imf_3_014TypedAttributeIN9Imath_3_04Vec2IdEEEC2ERKS3_
_ZN7Imf_3_014TypedAttributeIN9Imath_3_04Vec2IdEEED0Ev
_ZN7Imf_3_014TypedAttributeIN9Imath_3_04Vec2IdEEED1Ev
_ZN7Imf_3_014TypedAttributeIN9Imath_3_04Vec2IdEEED2Ev
_ZN7Imf_3_014TypedAttributeIN9Imath_3_04Vec2IfEEE13copyValueFromERKNS_9AttributeE
_ZN7Imf_3_014TypedAttributeIN9Imath_3_04Vec2IfEEE14staticTypeNameEv
_ZN7Imf_3_014TypedAttributeIN9Imath_3_04Vec2IfEEE16makeNewAttributeEv
_ZN7Imf_3_014TypedAttributeIN9Imath_3_04Vec2IfEEE21registerAttributeTypeEv
_ZN7Imf_3_014TypedAttributeIN9Imath_3_04Vec2IfEEE23unRegisterAttributeTypeEv
_ZN7Imf_3_014TypedAttributeIN9Imath_3_04Vec2IfEEE4castEPKNS_9AttributeE
_ZN7Imf_3_014TypedAttributeIN9Imath_3_04Vec2IfEEE4castEPNS_9AttributeE
_ZN7Imf_3_014TypedAttributeIN9Imath_3_04Vec2IfEEE4castERKNS_9AttributeE
_ZN7Imf_3_014TypedAttributeIN9Imath_3_04Vec2IfEEE4castERNS_9AttributeE
_ZN7Imf_3_014TypedAttributeIN9Imath_3_04Vec2IfEEE5valueEv
_ZN7Imf_3_014TypedAttributeIN9Imath_3_04Vec2IfEEEC1ERKS3_
_ZN7Imf_3_014TypedAttributeIN9Imath_3_04Vec2IfEEEC2ERKS3_
_ZN7Imf_3_014TypedAttributeIN9Imath_3_04Vec2IfEEED0Ev
_ZN7Imf_3_014TypedAttributeIN9Imath_3_04Vec2IfEEED1Ev
_ZN7Imf_3_014TypedAttributeIN9Imath_3_04Vec2IfEEED2Ev
_ZN7Imf_3_014TypedAttributeIN9Imath_3_04Vec2IiEEE13copyValueFromERKNS_9AttributeE
_ZN7Imf_3_014TypedAttributeIN9Imath_3_04Vec2IiEEE14staticTypeNameEv
_ZN7Imf_3_014TypedAttributeIN9Imath_3_04Vec2IiEEE16makeNewAttributeEv
_ZN7Imf_3_014TypedAttributeIN9Imath_3_04Vec2IiEEE21registerAttributeTypeEv
_ZN7Imf_3_014TypedAttributeIN9Imath_3_04Vec2IiEEE23unRegisterAttributeTypeEv
_ZN7Imf_3_014TypedAttributeIN9Imath_3_04Vec2IiEEE4castEPKNS_9AttributeE
_ZN7Imf_3_014TypedAttributeIN9Imath_3_04Vec2IiEEE4castEPNS_9AttributeE
_ZN7Imf_3_014TypedAttributeIN9Imath_3_04Vec2IiEEE4castERKNS_9AttributeE
_ZN7Imf_3_014TypedAttributeIN9Imath_3_04Vec2IiEEE4castERNS_9AttributeE
_ZN7Imf_3_014TypedAttributeIN9Imath_3_04Vec2IiEEE5valueEv
_ZN7Imf_3_014TypedAttributeIN9Imath_3_04Vec2IiEEEC1ERKS3_
_ZN7Imf_3_014TypedAttributeIN9Imath_3_04Vec2IiEEEC2ERKS3_
_ZN7Imf_3_014TypedAttributeIN9Imath_3_04Vec2IiEEED0Ev
_ZN7Imf_3_014TypedAttributeIN9Imath_3_04Vec2IiEEED1Ev
_ZN7Imf_3_014TypedAttributeIN9Imath_3_04Vec2IiEEED2Ev
_ZN7Imf_3_014TypedAttributeIN9Imath_3_04Vec3IdEEE13copyValueFromERKNS_9AttributeE
_ZN7Imf_3_014TypedAttributeIN9Imath_3_04Vec3IdEEE14staticTypeNameEv
_ZN7Imf_3_014TypedAttributeIN9Imath_3_04Vec3IdEEE16makeNewAttributeEv
_ZN7Imf_3_014TypedAttributeIN9Imath_3_04Vec3IdEEE21registerAttributeTypeEv
_ZN7Imf_3_014TypedAttributeIN9Imath_3_04Vec3IdEEE23unRegisterAttributeTypeEv
_ZN7Imf_3_014TypedAttributeIN9Imath_3_04Vec3IdEEE4castEPKNS_9AttributeE
_ZN7Imf_3_014TypedAttributeIN9Imath_3_04Vec3IdEEE4castEPNS_9AttributeE
_ZN7Imf_3_014TypedAttributeIN9Imath_3_04Vec3IdEEE4castERKNS_9AttributeE
_ZN7Imf_3_014TypedAttributeIN9Imath_3_04Vec3IdEEE4castERNS_9AttributeE
_ZN7Imf_3_014TypedAttributeIN9Imath_3_04Vec3IdEEE5valueEv
_ZN7Imf_3_014TypedAttributeIN9Imath_3_04Vec3IdEEEC1ERKS3_
_ZN7Imf_3_014TypedAttributeIN9Imath_3_04Vec3IdEEEC2ERKS3_
_ZN7Imf_3_014TypedAttributeIN9Imath_3_04Vec3IdEEED0Ev
_ZN7Imf_3_014TypedAttributeIN9Imath_3_04Vec3IdEEED1Ev
_ZN7Imf_3_014TypedAttributeIN9Imath_3_04Vec3IdEEED2Ev
_ZN7Imf_3_014TypedAttributeIN9Imath_3_04Vec3IfEEE13copyValueFromERKNS_9AttributeE
_ZN7Imf_3_014TypedAttributeIN9Imath_3_04Vec3IfEEE14staticTypeNameEv
_ZN7Imf_3_014TypedAttributeIN9Imath_3_04Vec3IfEEE16makeNewAttributeEv
_ZN7Imf_3_014TypedAttributeIN9Imath_3_04Vec3IfEEE21registerAttributeTypeEv
_ZN7Imf_3_014TypedAttributeIN9Imath_3_04Vec3IfEEE23unRegisterAttributeTypeEv
_ZN7Imf_3_014TypedAttributeIN9Imath_3_04Vec3IfEEE4castEPKNS_9AttributeE
_ZN7Imf_3_014TypedAttributeIN9Imath_3_04Vec3IfEEE4castEPNS_9AttributeE
_ZN7Imf_3_014TypedAttributeIN9Imath_3_04Vec3IfEEE4castERKNS_9AttributeE
_ZN7Imf_3_014TypedAttributeIN9Imath_3_04Vec3IfEEE4castERNS_9AttributeE
_ZN7Imf_3_014TypedAttributeIN9Imath_3_04Vec3IfEEE5valueEv
_ZN7Imf_3_014TypedAttributeIN9Imath_3_04Vec3IfEEEC1ERKS3_
_ZN7Imf_3_014TypedAttributeIN9Imath_3_04Vec3IfEEEC2ERKS3_
_ZN7Imf_3_014TypedAttributeIN9Imath_3_04Vec3IfEEED0Ev
_ZN7Imf_3_014TypedAttributeIN9Imath_3_04Vec3IfEEED1Ev
_ZN7Imf_3_014TypedAttributeIN9Imath_3_04Vec3IfEEED2Ev
_ZN7Imf_3_014TypedAttributeIN9Imath_3_04Vec3IiEEE13copyValueFromERKNS_9AttributeE
_ZN7Imf_3_014TypedAttributeIN9Imath_3_04Vec3IiEEE14staticTypeNameEv
_ZN7Imf_3_014TypedAttributeIN9Imath_3_04Vec3IiEEE16makeNewAttributeEv
_ZN7Imf_3_014TypedAttributeIN9Imath_3_04Vec3IiEEE21registerAttributeTypeEv
_ZN7Imf_3_014TypedAttributeIN9Imath_3_04Vec3IiEEE23unRegisterAttributeTypeEv
_ZN7Imf_3_014TypedAttributeIN9Imath_3_04Vec3IiEEE4castEPKNS_9AttributeE
_ZN7Imf_3_014TypedAttributeIN9Imath_3_04Vec3IiEEE4castEPNS_9AttributeE
_ZN7Imf_3_014TypedAttributeIN9Imath_3_04Vec3IiEEE4castERKNS_9AttributeE
_ZN7Imf_3_014TypedAttributeIN9Imath_3_04Vec3IiEEE4castERNS_9AttributeE
_ZN7Imf_3_014TypedAttributeIN9Imath_3_04Vec3IiEEE5valueEv
_ZN7Imf_3_014TypedAttributeIN9Imath_3_04Vec3IiEEEC1ERKS3_
_ZN7Imf_3_014TypedAttributeIN9Imath_3_04Vec3IiEEEC2ERKS3_
_ZN7Imf_3_014TypedAttributeIN9Imath_3_04Vec3IiEEED0Ev
_ZN7Imf_3_014TypedAttributeIN9Imath_3_04Vec3IiEEED1Ev
_ZN7Imf_3_014TypedAttributeIN9Imath_3_04Vec3IiEEED2Ev
_ZN7Imf_3_014TypedAttributeIN9Imath_3_08Matrix33IdEEE13copyValueFromERKNS_9AttributeE
_ZN7Imf_3_014TypedAttributeIN9Imath_3_08Matrix33IdEEE14staticTypeNameEv
_ZN7Imf_3_014TypedAttributeIN9Imath_3_08Matrix33IdEEE16makeNewAttributeEv
_ZN7Imf_3_014TypedAttributeIN9Imath_3_08Matrix33IdEEE21registerAttributeTypeEv
_ZN7Imf_3_014TypedAttributeIN9Imath_3_08Matrix33IdEEE23unRegisterAttributeTypeEv
_ZN7Imf_3_014TypedAttributeIN9Imath_3_08Matrix33IdEEE4castEPKNS_9AttributeE
_ZN7Imf_3_014TypedAttributeIN9Imath_3_08Matrix33IdEEE4castEPNS_9AttributeE
_ZN7Imf_3_014TypedAttributeIN9Imath_3_08Matrix33IdEEE4castERKNS_9AttributeE
_ZN7Imf_3_014TypedAttributeIN9Imath_3_08Matrix33IdEEE4castERNS_9AttributeE
_ZN7Imf_3_014TypedAttributeIN9Imath_3_08Matrix33IdEEE5valueEv
_ZN7Imf_3_014TypedAttributeIN9Imath_3_08Matrix33IdEEEC1ERKS3_
_ZN7Imf_3_014TypedAttributeIN9Imath_3_08Matrix33IdEEEC2ERKS3_
_ZN7Imf_3_014TypedAttributeIN9Imath_3_08Matrix33IdEEED0Ev
_ZN7Imf_3_014TypedAttributeIN9Imath_3_08Matrix33IdEEED1Ev
_ZN7Imf_3_014TypedAttributeIN9Imath_3_08Matrix33IdEEED2Ev
_ZN7Imf_3_014TypedAttributeIN9Imath_3_08Matrix33IfEEE13copyValueFromERKNS_9AttributeE
_ZN7Imf_3_014TypedAttributeIN9Imath_3_08Matrix33IfEEE14staticTypeNameEv
_ZN7Imf_3_014TypedAttributeIN9Imath_3_08Matrix33IfEEE16makeNewAttributeEv
_ZN7Imf_3_014TypedAttributeIN9Imath_3_08Matrix33IfEEE21registerAttributeTypeEv
_ZN7Imf_3_014TypedAttributeIN9Imath_3_08Matrix33IfEEE23unRegisterAttributeTypeEv
_ZN7Imf_3_014TypedAttributeIN9Imath_3_08Matrix33IfEEE4castEPKNS_9AttributeE
_ZN7Imf_3_014TypedAttributeIN9Imath_3_08Matrix33IfEEE4castEPNS_9AttributeE
_ZN7Imf_3_014TypedAttributeIN9Imath_3_08Matrix33IfEEE4castERKNS_9AttributeE
_ZN7Imf_3_014TypedAttributeIN9Imath_3_08Matrix33IfEEE4castERNS_9AttributeE
_ZN7Imf_3_014TypedAttributeIN9Imath_3_08Matrix33IfEEE5valueEv
_ZN7Imf_3_014TypedAttributeIN9Imath_3_08Matrix33IfEEEC1ERKS3_
_ZN7Imf_3_014TypedAttributeIN9Imath_3_08Matrix33IfEEEC2ERKS3_
_ZN7Imf_3_014TypedAttributeIN9Imath_3_08Matrix33IfEEED0Ev
_ZN7Imf_3_014TypedAttributeIN9Imath_3_08Matrix33IfEEED1Ev
_ZN7Imf_3_014TypedAttributeIN9Imath_3_08Matrix33IfEEED2Ev
_ZN7Imf_3_014TypedAttributeIN9Imath_3_08Matrix44IdEEE13copyValueFromERKNS_9AttributeE
_ZN7Imf_3_014TypedAttributeIN9Imath_3_08Matrix44IdEEE14staticTypeNameEv
_ZN7Imf_3_014TypedAttributeIN9Imath_3_08Matrix44IdEEE16makeNewAttributeEv
_ZN7Imf_3_014TypedAttributeIN9Imath_3_08Matrix44IdEEE21registerAttributeTypeEv
_ZN7Imf_3_014TypedAttributeIN9Imath_3_08Matrix44IdEEE23unRegisterAttributeTypeEv
_ZN7Imf_3_014TypedAttributeIN9Imath_3_08Matrix44IdEEE4castEPKNS_9AttributeE
_ZN7Imf_3_014TypedAttributeIN9Imath_3_08Matrix44IdEEE4castEPNS_9AttributeE
_ZN7Imf_3_014TypedAttributeIN9Imath_3_08Matrix44IdEEE4castERKNS_9AttributeE
_ZN7Imf_3_014TypedAttributeIN9Imath_3_08Matrix44IdEEE4castERNS_9AttributeE
_ZN7Imf_3_014TypedAttributeIN9Imath_3_08Matrix44IdEEE5valueEv
_ZN7Imf_3_014TypedAttributeIN9Imath_3_08Matrix44IdEEEC1ERKS3_
_ZN7Imf_3_014TypedAttributeIN9Imath_3_08Matrix44IdEEEC2ERKS3_
_ZN7Imf_3_014TypedAttributeIN9Imath_3_08Matrix44IdEEED0Ev
_ZN7Imf_3_014TypedAttributeIN9Imath_3_08Matrix44IdEEED1Ev
_ZN7Imf_3_014TypedAttributeIN9Imath_3_08Matrix44IdEEED2Ev
_ZN7Imf_3_014TypedAttributeIN9Imath_3_08Matrix44IfEEE13copyValueFromERKNS_9AttributeE
_ZN7Imf_3_014TypedAttributeIN9Imath_3_08Matrix44IfEEE14staticTypeNameEv
_ZN7Imf_3_014TypedAttributeIN9Imath_3_08Matrix44IfEEE16makeNewAttributeEv
_ZN7Imf_3_014TypedAttributeIN9Imath_3_08Matrix44IfEEE21registerAttributeTypeEv
_ZN7Imf_3_014TypedAttributeIN9Imath_3_08Matrix44IfEEE23unRegisterAttributeTypeEv
_ZN7Imf_3_014TypedAttributeIN9Imath_3_08Matrix44IfEEE4castEPKNS_9AttributeE
_ZN7Imf_3_014TypedAttributeIN9Imath_3_08Matrix44IfEEE4castEPNS_9AttributeE
_ZN7Imf_3_014TypedAttributeIN9Imath_3_08Matrix44IfEEE4castERKNS_9AttributeE
_ZN7Imf_3_014TypedAttributeIN9Imath_3_08Matrix44IfEEE4castERNS_9AttributeE
_ZN7Imf_3_014TypedAttributeIN9Imath_3_08Matrix44IfEEE5valueEv
_ZN7Imf_3_014TypedAttributeIN9Imath_3_08Matrix44IfEEEC1ERKS3_
_ZN7Imf_3_014TypedAttributeIN9Imath_3_08Matrix44IfEEEC2ERKS3_
_ZN7Imf_3_014TypedAttributeIN9Imath_3_08Matrix44IfEEED0Ev
_ZN7Imf_3_014TypedAttributeIN9Imath_3_08Matrix44IfEEED1Ev
_ZN7Imf_3_014TypedAttributeIN9Imath_3_08Matrix44IfEEED2Ev
_ZN7Imf_3_014TypedAttributeINS_11ChannelListEE13copyValueFromERKNS_9AttributeE
_ZN7Imf_3_014TypedAttributeINS_11ChannelListEE14staticTypeNameEv
_ZN7Imf_3_014TypedAttributeINS_11ChannelListEE16makeNewAttributeEv
_ZN7Imf_3_014TypedAttributeINS_11ChannelListEE21registerAttributeTypeEv
_ZN7Imf_3_014TypedAttributeINS_11ChannelListEE23unRegisterAttributeTypeEv
_ZN7Imf_3_014TypedAttributeINS_11ChannelListEE4castEPKNS_9AttributeE
_ZN7Imf_3_014TypedAttributeINS_11ChannelListEE4castEPNS_9AttributeE
_ZN7Imf_3_014TypedAttributeINS_11ChannelListEE4castERKNS_9AttributeE
_ZN7Imf_3_014TypedAttributeINS_11ChannelListEE4castERNS_9AttributeE
_ZN7Imf_3_014TypedAttributeINS_11ChannelListEE5valueEv
_ZN7Imf_3_014TypedAttributeINS_11ChannelListEEC1ERKS1_
_ZN7Imf_3_014TypedAttributeINS_11ChannelListEEC1Ev
_ZN7Imf_3_014TypedAttributeINS_11ChannelListEEC2ERKS1_
_ZN7Imf_3_014TypedAttributeINS_11ChannelListEEC2Ev
_ZN7Imf_3_014TypedAttributeINS_11ChannelListEED0Ev
_ZN7Imf_3_014TypedAttributeINS_11ChannelListEED1Ev
_ZN7Imf_3_014TypedAttributeINS_11ChannelListEED2Ev
_ZN7Imf_3_014TypedAttributeINS_11CompressionEE13copyValueFromERKNS_9AttributeE
_ZN7Imf_3_014TypedAttributeINS_11CompressionEE14staticTypeNameEv
_ZN7Imf_3_014TypedAttributeINS_11CompressionEE16makeNewAttributeEv
_ZN7Imf_3_014TypedAttributeINS_11CompressionEE21registerAttributeTypeEv
_ZN7Imf_3_014TypedAttributeINS_11CompressionEE23unRegisterAttributeTypeEv
_ZN7Imf_3_014TypedAttributeINS_11CompressionEE4castEPKNS_9AttributeE
_ZN7Imf_3_014TypedAttributeINS_11CompressionEE4castEPNS_9AttributeE
_ZN7Imf_3_014TypedAttributeINS_11CompressionEE4castERKNS_9AttributeE
_ZN7Imf_3_014TypedAttributeINS_11CompressionEE4castERNS_9AttributeE
_ZN7Imf_3_014TypedAttributeINS_11CompressionEE5valueEv
_ZN7Imf_3_014TypedAttributeINS_11CompressionEEC1ERKS1_
_ZN7Imf_3_014TypedAttributeINS_11CompressionEEC2ERKS1_
_ZN7Imf_3_014TypedAttributeINS_11CompressionEED0Ev
_ZN7Imf_3_014TypedAttributeINS_11CompressionEED1Ev
_ZN7Imf_3_014TypedAttributeINS_11CompressionEED2Ev
_ZN7Imf_3_014TypedAttributeINS_12PreviewImageEE13copyValueFromERKNS_9AttributeE
_ZN7Imf_3_014TypedAttributeINS_12PreviewImageEE14staticTypeNameEv
_ZN7Imf_3_014TypedAttributeINS_12PreviewImageEE16makeNewAttributeEv
_ZN7Imf_3_014TypedAttributeINS_12PreviewImageEE21registerAttributeTypeEv
_ZN7Imf_3_014TypedAttributeINS_12PreviewImageEE23unRegisterAttributeTypeEv
_ZN7Imf_3_014TypedAttributeINS_12PreviewImageEE4castEPKNS_9AttributeE
_ZN7Imf_3_014TypedAttributeINS_12PreviewImageEE4castEPNS_9AttributeE
_ZN7Imf_3_014TypedAttributeINS_12PreviewImageEE4castERKNS_9AttributeE
_ZN7Imf_3_014TypedAttributeINS_12PreviewImageEE4castERNS_9AttributeE
_ZN7Imf_3_014TypedAttributeINS_12PreviewImageEE5valueEv
_ZN7Imf_3_014TypedAttributeINS_12PreviewImageEEC1ERKS1_
_ZN7Imf_3_014TypedAttributeINS_12PreviewImageEEC2ERKS1_
_ZN7Imf_3_014TypedAttributeINS_12PreviewImageEED0Ev
_ZN7Imf_3_014TypedAttributeINS_12PreviewImageEED1Ev
_ZN7Imf_3_014TypedAttributeINS_12PreviewImageEED2Ev
_ZN7Imf_3_014TypedAttributeINS_14ChromaticitiesEE13copyValueFromERKNS_9AttributeE
_ZN7Imf_3_014TypedAttributeINS_14ChromaticitiesEE14staticTypeNameEv
_ZN7Imf_3_014TypedAttributeINS_14ChromaticitiesEE16makeNewAttributeEv
_ZN7Imf_3_014TypedAttributeINS_14ChromaticitiesEE21registerAttributeTypeEv
_ZN7Imf_3_014TypedAttributeINS_14ChromaticitiesEE23unRegisterAttributeTypeEv
_ZN7Imf_3_014TypedAttributeINS_14ChromaticitiesEE4castEPKNS_9AttributeE
_ZN7Imf_3_014TypedAttributeINS_14ChromaticitiesEE4castEPNS_9AttributeE
_ZN7Imf_3_014TypedAttributeINS_14ChromaticitiesEE4castERKNS_9AttributeE
_ZN7Imf_3_014TypedAttributeINS_14ChromaticitiesEE4castERNS_9AttributeE
_ZN7Imf_3_014TypedAttributeINS_14ChromaticitiesEE5valueEv
_ZN7Imf_3_014TypedAttributeINS_14ChromaticitiesEEC1ERKS1_
_ZN7Imf_3_014TypedAttributeINS_14ChromaticitiesEEC2ERKS1_
_ZN7Imf_3_014TypedAttributeINS_14ChromaticitiesEED0Ev
_ZN7Imf_3_014TypedAttributeINS_14ChromaticitiesEED1Ev
_ZN7Imf_3_014TypedAttributeINS_14ChromaticitiesEED2Ev
_ZN7Imf_3_014TypedAttributeINS_14DeepImageStateEE14staticTypeNameEv
_ZN7Imf_3_014TypedAttributeINS_14DeepImageStateEE16makeNewAttributeEv
_ZN7Imf_3_014TypedAttributeINS_14DeepImageStateEE21registerAttributeTypeEv
_ZN7Imf_3_014TypedAttributeINS_14DeepImageStateEE23unRegisterAttributeTypeEv
_ZN7Imf_3_014TypedAttributeINS_14DeepImageStateEE4castEPKNS_9AttributeE
_ZN7Imf_3_014TypedAttributeINS_14DeepImageStateEE4castEPNS_9AttributeE
_ZN7Imf_3_014TypedAttributeINS_14DeepImageStateEE4castERKNS_9AttributeE
_ZN7Imf_3_014TypedAttributeINS_14DeepImageStateEE4castERNS_9AttributeE
_ZN7Imf_3_014TypedAttributeINS_14DeepImageStateEE5valueEv
_ZN7Imf_3_014TypedAttributeINS_14DeepImageStateEEC1ERKS1_
_ZN7Imf_3_014TypedAttributeINS_14DeepImageStateEEC2ERKS1_
_ZN7Imf_3_014TypedAttributeINS_14DeepImageStateEED0Ev
_ZN7Imf_3_014TypedAttributeINS_14DeepImageStateEED1Ev
_ZN7Imf_3_014TypedAttributeINS_14DeepImageStateEED2Ev
_ZN7Imf_3_014TypedAttributeINS_15TileDescriptionEE13copyValueFromERKNS_9AttributeE
_ZN7Imf_3_014TypedAttributeINS_15TileDescriptionEE14staticTypeNameEv
_ZN7Imf_3_014TypedAttributeINS_15TileDescriptionEE16makeNewAttributeEv
_ZN7Imf_3_014TypedAttributeINS_15TileDescriptionEE21registerAttributeTypeEv
_ZN7Imf_3_014TypedAttributeINS_15TileDescriptionEE23unRegisterAttributeTypeEv
_ZN7Imf_3_014TypedAttributeINS_15TileDescriptionEE4castEPKNS_9AttributeE
_ZN7Imf_3_014TypedAttributeINS_15TileDescriptionEE4castEPNS_9AttributeE
_ZN7Imf_3_014TypedAttributeINS_15TileDescriptionEE4castERKNS_9AttributeE
_ZN7Imf_3_014TypedAttributeINS_15TileDescriptionEE4castERNS_9AttributeE
_ZN7Imf_3_014TypedAttributeINS_15TileDescriptionEE5valueEv
_ZN7Imf_3_014TypedAttributeINS_15TileDescriptionEEC1ERKS1_
_ZN7Imf_3_014TypedAttributeINS_15TileDescriptionEEC2ERKS1_
_ZN7Imf_3_014TypedAttributeINS_15TileDescriptionEED0Ev
_ZN7Imf_3_014TypedAttributeINS_15TileDescriptionEED1Ev
_ZN7Imf_3_014TypedAttributeINS_15TileDescriptionEED2Ev
_ZN7Imf_3_014TypedAttributeINS_20CompressedIDManifestEE13copyValueFromERKNS_9AttributeE
_ZN7Imf_3_014TypedAttributeINS_20CompressedIDManifestEE14staticTypeNameEv
_ZN7Imf_3_014TypedAttributeINS_20CompressedIDManifestEE16makeNewAttributeEv
_ZN7Imf_3_014TypedAttributeINS_20CompressedIDManifestEE21registerAttributeTypeEv
_ZN7Imf_3_014TypedAttributeINS_20CompressedIDManifestEE23unRegisterAttributeTypeEv
_ZN7Imf_3_014TypedAttributeINS_20CompressedIDManifestEE4castEPKNS_9AttributeE
_ZN7Imf_3_014TypedAttributeINS_20CompressedIDManifestEE4castEPNS_9AttributeE
_ZN7Imf_3_014TypedAttributeINS_20CompressedIDManifestEE4castERKNS_9AttributeE
_ZN7Imf_3_014TypedAttributeINS_20CompressedIDManifestEE4castERNS_9AttributeE
_ZN7Imf_3_014TypedAttributeINS_20CompressedIDManifestEE5valueEv
_ZN7Imf_3_014TypedAttributeINS_20CompressedIDManifestEEC1ERKS1_
_ZN7Imf_3_014TypedAttributeINS_20CompressedIDManifestEEC2ERKS1_
_ZN7Imf_3_014TypedAttributeINS_20CompressedIDManifestEED0Ev
_ZN7Imf_3_014TypedAttributeINS_20CompressedIDManifestEED1Ev
_ZN7Imf_3_014TypedAttributeINS_20CompressedIDManifestEED2Ev
_ZN7Imf_3_014TypedAttributeINS_6EnvmapEE14staticTypeNameEv
_ZN7Imf_3_014TypedAttributeINS_6EnvmapEE16makeNewAttributeEv
_ZN7Imf_3_014TypedAttributeINS_6EnvmapEE21registerAttributeTypeEv
_ZN7Imf_3_014TypedAttributeINS_6EnvmapEE23unRegisterAttributeTypeEv
_ZN7Imf_3_014TypedAttributeINS_6EnvmapEE4castEPKNS_9AttributeE
_ZN7Imf_3_014TypedAttributeINS_6EnvmapEE4castEPNS_9AttributeE
_ZN7Imf_3_014TypedAttributeINS_6EnvmapEE4castERKNS_9AttributeE
_ZN7Imf_3_014TypedAttributeINS_6EnvmapEE4castERNS_9AttributeE
_ZN7Imf_3_014TypedAttributeINS_6EnvmapEE5valueEv
_ZN7Imf_3_014TypedAttributeINS_6EnvmapEEC1ERKS1_
_ZN7Imf_3_014TypedAttributeINS_6EnvmapEEC2ERKS1_
_ZN7Imf_3_014TypedAttributeINS_6EnvmapEED0Ev
_ZN7Imf_3_014TypedAttributeINS_6EnvmapEED1Ev
_ZN7Imf_3_014TypedAttributeINS_6EnvmapEED2Ev
_ZN7Imf_3_014TypedAttributeINS_7KeyCodeEE13copyValueFromERKNS_9AttributeE
_ZN7Imf_3_014TypedAttributeINS_7KeyCodeEE14staticTypeNameEv
_ZN7Imf_3_014TypedAttributeINS_7KeyCodeEE16makeNewAttributeEv
_ZN7Imf_3_014TypedAttributeINS_7KeyCodeEE21registerAttributeTypeEv
_ZN7Imf_3_014TypedAttributeINS_7KeyCodeEE23unRegisterAttributeTypeEv
_ZN7Imf_3_014TypedAttributeINS_7KeyCodeEE4castEPKNS_9AttributeE
_ZN7Imf_3_014TypedAttributeINS_7KeyCodeEE4castEPNS_9AttributeE
_ZN7Imf_3_014TypedAttributeINS_7KeyCodeEE4castERKNS_9AttributeE
_ZN7Imf_3_014TypedAttributeINS_7KeyCodeEE4castERNS_9AttributeE
_ZN7Imf_3_014TypedAttributeINS_7KeyCodeEE5valueEv
_ZN7Imf_3_014TypedAttributeINS_7KeyCodeEEC1ERKS1_
_ZN7Imf_3_014TypedAttributeINS_7KeyCodeEEC2ERKS1_
_ZN7Imf_3_014TypedAttributeINS_7KeyCodeEED0Ev
_ZN7Imf_3_014TypedAttributeINS_7KeyCodeEED1Ev
_ZN7Imf_3_014TypedAttributeINS_7KeyCodeEED2Ev
_ZN7Imf_3_014TypedAttributeINS_8RationalEE13copyValueFromERKNS_9AttributeE
_ZN7Imf_3_014TypedAttributeINS_8RationalEE14staticTypeNameEv
_ZN7Imf_3_014TypedAttributeINS_8RationalEE16makeNewAttributeEv
_ZN7Imf_3_014TypedAttributeINS_8RationalEE21registerAttributeTypeEv
_ZN7Imf_3_014TypedAttributeINS_8RationalEE23unRegisterAttributeTypeEv
_ZN7Imf_3_014TypedAttributeINS_8RationalEE4castEPKNS_9AttributeE
_ZN7Imf_3_014TypedAttributeINS_8RationalEE4castEPNS_9AttributeE
_ZN7Imf_3_014TypedAttributeINS_8RationalEE4castERKNS_9AttributeE
_ZN7Imf_3_014TypedAttributeINS_8RationalEE4castERNS_9AttributeE
_ZN7Imf_3_014TypedAttributeINS_8RationalEE5valueEv
_ZN7Imf_3_014TypedAttributeINS_8RationalEEC1ERKS1_
_ZN7Imf_3_014TypedAttributeINS_8RationalEEC2ERKS1_
_ZN7Imf_3_014TypedAttributeINS_8RationalEED0Ev
_ZN7Imf_3_014TypedAttributeINS_8RationalEED1Ev
_ZN7Imf_3_014TypedAttributeINS_8RationalEED2Ev
_ZN7Imf_3_014TypedAttributeINS_8TimeCodeEE13copyValueFromERKNS_9AttributeE
_ZN7Imf_3_014TypedAttributeINS_8TimeCodeEE14staticTypeNameEv
_ZN7Imf_3_014TypedAttributeINS_8TimeCodeEE16makeNewAttributeEv
_ZN7Imf_3_014TypedAttributeINS_8TimeCodeEE21registerAttributeTypeEv
_ZN7Imf_3_014TypedAttributeINS_8TimeCodeEE23unRegisterAttributeTypeEv
_ZN7Imf_3_014TypedAttributeINS_8TimeCodeEE4castEPKNS_9AttributeE
_ZN7Imf_3_014TypedAttributeINS_8TimeCodeEE4castEPNS_9AttributeE
_ZN7Imf_3_014TypedAttributeINS_8TimeCodeEE4castERKNS_9AttributeE
_ZN7Imf_3_014TypedAttributeINS_8TimeCodeEE4castERNS_9AttributeE
_ZN7Imf_3_014TypedAttributeINS_8TimeCodeEE5valueEv
_ZN7Imf_3_014TypedAttributeINS_8TimeCodeEEC1ERKS1_
_ZN7Imf_3_014TypedAttributeINS_8TimeCodeEEC2ERKS1_
_ZN7Imf_3_014TypedAttributeINS_8TimeCodeEED0Ev
_ZN7Imf_3_014TypedAttributeINS_8TimeCodeEED1Ev
_ZN7Imf_3_014TypedAttributeINS_8TimeCodeEED2Ev
_ZN7Imf_3_014TypedAttributeINS_9LineOrderEE13copyValueFromERKNS_9AttributeE
_ZN7Imf_3_014TypedAttributeINS_9LineOrderEE14staticTypeNameEv
_ZN7Imf_3_014TypedAttributeINS_9LineOrderEE16makeNewAttributeEv
_ZN7Imf_3_014TypedAttributeINS_9LineOrderEE21registerAttributeTypeEv
_ZN7Imf_3_014TypedAttributeINS_9LineOrderEE23unRegisterAttributeTypeEv
_ZN7Imf_3_014TypedAttributeINS_9LineOrderEE4castEPKNS_9AttributeE
_ZN7Imf_3_014TypedAttributeINS_9LineOrderEE4castEPNS_9AttributeE
_ZN7Imf_3_014TypedAttributeINS_9LineOrderEE4castERKNS_9AttributeE
_ZN7Imf_3_014TypedAttributeINS_9LineOrderEE4castERNS_9AttributeE
_ZN7Imf_3_014TypedAttributeINS_9LineOrderEE5valueEv
_ZN7Imf_3_014TypedAttributeINS_9LineOrderEEC1ERKS1_
_ZN7Imf_3_014TypedAttributeINS_9LineOrderEEC2ERKS1_
_ZN7Imf_3_014TypedAttributeINS_9LineOrderEED0Ev
_ZN7Imf_3_014TypedAttributeINS_9LineOrderEED1Ev
_ZN7Imf_3_014TypedAttributeINS_9LineOrderEED2Ev
_ZN7Imf_3_014TypedAttributeINSt3__112basic_stringIcNS1_11char_traitsIcEENS1_9allocatorIcEEEEE13copyValueFromERKNS_9AttributeE
_ZN7Imf_3_014TypedAttributeINSt3__112basic_stringIcNS1_11char_traitsIcEENS1_9allocatorIcEEEEE14staticTypeNameEv
_ZN7Imf_3_014TypedAttributeINSt3__112basic_stringIcNS1_11char_traitsIcEENS1_9allocatorIcEEEEE16makeNewAttributeEv
_ZN7Imf_3_014TypedAttributeINSt3__112basic_stringIcNS1_11char_traitsIcEENS1_9allocatorIcEEEEE21registerAttributeTypeEv
_ZN7Imf_3_014TypedAttributeINSt3__112basic_stringIcNS1_11char_traitsIcEENS1_9allocatorIcEEEEE23unRegisterAttributeTypeEv
_ZN7Imf_3_014TypedAttributeINSt3__112basic_stringIcNS1_11char_traitsIcEENS1_9allocatorIcEEEEE4castEPKNS_9AttributeE
_ZN7Imf_3_014TypedAttributeINSt3__112basic_stringIcNS1_11char_traitsIcEENS1_9allocatorIcEEEEE4castEPNS_9AttributeE
_ZN7Imf_3_014TypedAttributeINSt3__112basic_stringIcNS1_11char_traitsIcEENS1_9allocatorIcEEEEE4castERKNS_9AttributeE
_ZN7Imf_3_014TypedAttributeINSt3__112basic_stringIcNS1_11char_traitsIcEENS1_9allocatorIcEEEEE4castERNS_9AttributeE
_ZN7Imf_3_014TypedAttributeINSt3__112basic_stringIcNS1_11char_traitsIcEENS1_9allocatorIcEEEEE5valueEv
_ZN7Imf_3_014TypedAttributeINSt3__112basic_stringIcNS1_11char_traitsIcEENS1_9allocatorIcEEEEEC1ERKS7_
_ZN7Imf_3_014TypedAttributeINSt3__112basic_stringIcNS1_11char_traitsIcEENS1_9allocatorIcEEEEEC2ERKS7_
_ZN7Imf_3_014TypedAttributeINSt3__112basic_stringIcNS1_11char_traitsIcEENS1_9allocatorIcEEEEED0Ev
_ZN7Imf_3_014TypedAttributeINSt3__112basic_stringIcNS1_11char_traitsIcEENS1_9allocatorIcEEEEED1Ev
_ZN7Imf_3_014TypedAttributeINSt3__112basic_stringIcNS1_11char_traitsIcEENS1_9allocatorIcEEEEED2Ev
_ZN7Imf_3_014TypedAttributeINSt3__16vectorINS1_12basic_stringIcNS1_11char_traitsIcEENS1_9allocatorIcEEEENS6_IS8_EEEEE13copyValueFromERKNS_9AttributeE
_ZN7Imf_3_014TypedAttributeINSt3__16vectorINS1_12basic_stringIcNS1_11char_traitsIcEENS1_9allocatorIcEEEENS6_IS8_EEEEE14staticTypeNameEv
_ZN7Imf_3_014TypedAttributeINSt3__16vectorINS1_12basic_stringIcNS1_11char_traitsIcEENS1_9allocatorIcEEEENS6_IS8_EEEEE16makeNewAttributeEv
_ZN7Imf_3_014TypedAttributeINSt3__16vectorINS1_12basic_stringIcNS1_11char_traitsIcEENS1_9allocatorIcEEEENS6_IS8_EEEEE21registerAttributeTypeEv
_ZN7Imf_3_014TypedAttributeINSt3__16vectorINS1_12basic_stringIcNS1_11char_traitsIcEENS1_9allocatorIcEEEENS6_IS8_EEEEE23unRegisterAttributeTypeEv
_ZN7Imf_3_014TypedAttributeINSt3__16vectorINS1_12basic_stringIcNS1_11char_traitsIcEENS1_9allocatorIcEEEENS6_IS8_EEEEE4castEPKNS_9AttributeE
_ZN7Imf_3_014TypedAttributeINSt3__16vectorINS1_12basic_stringIcNS1_11char_traitsIcEENS1_9allocatorIcEEEENS6_IS8_EEEEE4castEPNS_9AttributeE
_ZN7Imf_3_014TypedAttributeINSt3__16vectorINS1_12basic_stringIcNS1_11char_traitsIcEENS1_9allocatorIcEEEENS6_IS8_EEEEE4castERKNS_9AttributeE
_ZN7Imf_3_014TypedAttributeINSt3__16vectorINS1_12basic_stringIcNS1_11char_traitsIcEENS1_9allocatorIcEEEENS6_IS8_EEEEE4castERNS_9AttributeE
_ZN7Imf_3_014TypedAttributeINSt3__16vectorINS1_12basic_stringIcNS1_11char_traitsIcEENS1_9allocatorIcEEEENS6_IS8_EEEEE5valueEv
_ZN7Imf_3_014TypedAttributeINSt3__16vectorINS1_12basic_stringIcNS1_11char_traitsIcEENS1_9allocatorIcEEEENS6_IS8_EEEEEC1ERKSA_
_ZN7Imf_3_014TypedAttributeINSt3__16vectorINS1_12basic_stringIcNS1_11char_traitsIcEENS1_9allocatorIcEEEENS6_IS8_EEEEEC2ERKSA_
_ZN7Imf_3_014TypedAttributeINSt3__16vectorINS1_12basic_stringIcNS1_11char_traitsIcEENS1_9allocatorIcEEEENS6_IS8_EEEEED0Ev
_ZN7Imf_3_014TypedAttributeINSt3__16vectorINS1_12basic_stringIcNS1_11char_traitsIcEENS1_9allocatorIcEEEENS6_IS8_EEEEED1Ev
_ZN7Imf_3_014TypedAttributeINSt3__16vectorINS1_12basic_stringIcNS1_11char_traitsIcEENS1_9allocatorIcEEEENS6_IS8_EEEEED2Ev
_ZN7Imf_3_014TypedAttributeINSt3__16vectorIfNS1_9allocatorIfEEEEE13copyValueFromERKNS_9AttributeE
_ZN7Imf_3_014TypedAttributeINSt3__16vectorIfNS1_9allocatorIfEEEEE14staticTypeNameEv
_ZN7Imf_3_014TypedAttributeINSt3__16vectorIfNS1_9allocatorIfEEEEE16makeNewAttributeEv
_ZN7Imf_3_014TypedAttributeINSt3__16vectorIfNS1_9allocatorIfEEEEE21registerAttributeTypeEv
_ZN7Imf_3_014TypedAttributeINSt3__16vectorIfNS1_9allocatorIfEEEEE23unRegisterAttributeTypeEv
_ZN7Imf_3_014TypedAttributeINSt3__16vectorIfNS1_9allocatorIfEEEEE4castEPKNS_9AttributeE
_ZN7Imf_3_014TypedAttributeINSt3__16vectorIfNS1_9allocatorIfEEEEE4castEPNS_9AttributeE
_ZN7Imf_3_014TypedAttributeINSt3__16vectorIfNS1_9allocatorIfEEEEE4castERKNS_9AttributeE
_ZN7Imf_3_014TypedAttributeINSt3__16vectorIfNS1_9allocatorIfEEEEE4castERNS_9AttributeE
_ZN7Imf_3_014TypedAttributeINSt3__16vectorIfNS1_9allocatorIfEEEEE5valueEv
_ZN7Imf_3_014TypedAttributeINSt3__16vectorIfNS1_9allocatorIfEEEEEC1ERKS5_
_ZN7Imf_3_014TypedAttributeINSt3__16vectorIfNS1_9allocatorIfEEEEEC2ERKS5_
_ZN7Imf_3_014TypedAttributeINSt3__16vectorIfNS1_9allocatorIfEEEEED0Ev
_ZN7Imf_3_014TypedAttributeINSt3__16vectorIfNS1_9allocatorIfEEEEED1Ev
_ZN7Imf_3_014TypedAttributeINSt3__16vectorIfNS1_9allocatorIfEEEEED2Ev
_ZN7Imf_3_014TypedAttributeIdE13copyValueFromERKNS_9AttributeE
_ZN7Imf_3_014TypedAttributeIdE13readValueFromERNS_7IStreamEii
_ZN7Imf_3_014TypedAttributeIdE14staticTypeNameEv
_ZN7Imf_3_014TypedAttributeIdE16makeNewAttributeEv
_ZN7Imf_3_014TypedAttributeIdE21registerAttributeTypeEv
_ZN7Imf_3_014TypedAttributeIdE23unRegisterAttributeTypeEv
_ZN7Imf_3_014TypedAttributeIdE4castEPKNS_9AttributeE
_ZN7Imf_3_014TypedAttributeIdE4castEPNS_9AttributeE
_ZN7Imf_3_014TypedAttributeIdE4castERKNS_9AttributeE
_ZN7Imf_3_014TypedAttributeIdE4castERNS_9AttributeE
_ZN7Imf_3_014TypedAttributeIdE5valueEv
_ZN7Imf_3_014TypedAttributeIdEC1ERKd
_ZN7Imf_3_014TypedAttributeIdEC2ERKd
_ZN7Imf_3_014TypedAttributeIdED0Ev
_ZN7Imf_3_014TypedAttributeIdED1Ev
_ZN7Imf_3_014TypedAttributeIdED2Ev
_ZN7Imf_3_014TypedAttributeIfE13copyValueFromERKNS_9AttributeE
_ZN7Imf_3_014TypedAttributeIfE13readValueFromERNS_7IStreamEii
_ZN7Imf_3_014TypedAttributeIfE14staticTypeNameEv
_ZN7Imf_3_014TypedAttributeIfE16makeNewAttributeEv
_ZN7Imf_3_014TypedAttributeIfE21registerAttributeTypeEv
_ZN7Imf_3_014TypedAttributeIfE23unRegisterAttributeTypeEv
_ZN7Imf_3_014TypedAttributeIfE4castEPKNS_9AttributeE
_ZN7Imf_3_014TypedAttributeIfE4castEPNS_9AttributeE
_ZN7Imf_3_014TypedAttributeIfE4castERKNS_9AttributeE
_ZN7Imf_3_014TypedAttributeIfE4castERNS_9AttributeE
_ZN7Imf_3_014TypedAttributeIfE5valueEv
_ZN7Imf_3_014TypedAttributeIfEC1ERKf
_ZN7Imf_3_014TypedAttributeIfEC2ERKf
_ZN7Imf_3_014TypedAttributeIfED0Ev
_ZN7Imf_3_014TypedAttributeIfED1Ev
_ZN7Imf_3_014TypedAttributeIfED2Ev
_ZN7Imf_3_014TypedAttributeIiE13copyValueFromERKNS_9AttributeE
_ZN7Imf_3_014TypedAttributeIiE13readValueFromERNS_7IStreamEii
_ZN7Imf_3_014TypedAttributeIiE14staticTypeNameEv
_ZN7Imf_3_014TypedAttributeIiE16makeNewAttributeEv
_ZN7Imf_3_014TypedAttributeIiE21registerAttributeTypeEv
_ZN7Imf_3_014TypedAttributeIiE23unRegisterAttributeTypeEv
_ZN7Imf_3_014TypedAttributeIiE4castEPKNS_9AttributeE
_ZN7Imf_3_014TypedAttributeIiE4castEPNS_9AttributeE
_ZN7Imf_3_014TypedAttributeIiE4castERKNS_9AttributeE
_ZN7Imf_3_014TypedAttributeIiE4castERNS_9AttributeE
_ZN7Imf_3_014TypedAttributeIiE5valueEv
_ZN7Imf_3_014TypedAttributeIiEC1ERKi
_ZN7Imf_3_014TypedAttributeIiEC2ERKi
_ZN7Imf_3_014TypedAttributeIiED0Ev
_ZN7Imf_3_014TypedAttributeIiED1Ev
_ZN7Imf_3_014TypedAttributeIiED2Ev
_ZN7Imf_3_014adoptedNeutralERKNS_6HeaderE
_ZN7Imf_3_014adoptedNeutralERNS_6HeaderE
_ZN7Imf_3_014channelsInViewERKNSt3__112basic_stringIcNS0_11char_traitsIcEENS0_9allocatorIcEEEERKNS_11ChannelListERKNS0_6vectorIS6_NS4_IS6_EEEE
_ZN7Imf_3_014chromaticitiesERKNS_6HeaderE
_ZN7Imf_3_014chromaticitiesERNS_6HeaderE
_ZN7Imf_3_014convertInPlaceERPcRPKcNS_9PixelTypeEy
_ZN7Imf_3_014deepImageStateERKNS_6HeaderE
_ZN7Imf_3_014deepImageStateERNS_6HeaderE
_ZN7Imf_3_014focusAttributeERKNS_6HeaderE
_ZN7Imf_3_014focusAttributeERNS_6HeaderE
_ZN7Imf_3_014insertViewNameERKNSt3__112basic_stringIcNS0_11char_traitsIcEENS0_9allocatorIcEEEERKNS0_6vectorIS6_NS4_IS6_EEEEi
_ZN7Imf_3_014lineBufferMaxYEiii
_ZN7Imf_3_014lineBufferMinYEiii
_ZN7Imf_3_014ownerAttributeERKNS_6HeaderE
_ZN7Imf_3_014ownerAttributeERNS_6HeaderE
_ZN7Imf_3_014removeViewNameERKNSt3__112basic_stringIcNS0_11char_traitsIcEENS0_9allocatorIcEEEES8_
_ZN7Imf_3_014whiteLuminanceERKNS_6HeaderE
_ZN7Imf_3_014whiteLuminanceERNS_6HeaderE
_ZN7Imf_3_015DeepCompositing15composite_pixelEPfPPKfPPKciii
_ZN7Imf_3_015DeepCompositing4sortEPiPPKfPPKciii
_ZN7Imf_3_015DeepCompositingC1Ev
_ZN7Imf_3_015DeepCompositingC2Ev
_ZN7Imf_3_015DeepCompositingD0Ev
_ZN7Imf_3_015DeepCompositingD1Ev
_ZN7Imf_3_015DeepCompositingD2Ev
_ZN7Imf_3_015DeepFrameBuffer13ConstIteratorC1ERKNS0_8IteratorE
_ZN7Imf_3_015DeepFrameBuffer13ConstIteratorC1ERKNSt3__120__map_const_iteratorINS2_21__tree_const_iteratorINS2_12__value_typeINS_4NameENS_9DeepSliceEEEPNS2_11__tree_nodeIS8_PvEExEEEE
_ZN7Imf_3_015DeepFrameBuffer13ConstIteratorC1Ev
_ZN7Imf_3_015DeepFrameBuffer13ConstIteratorC2ERKNS0_8IteratorE
_ZN7Imf_3_015DeepFrameBuffer13ConstIteratorC2ERKNSt3__120__map_const_iteratorINS2_21__tree_const_iteratorINS2_12__value_typeINS_4NameENS_9DeepSliceEEEPNS2_11__tree_nodeIS8_PvEExEEEE
_ZN7Imf_3_015DeepFrameBuffer13ConstIteratorC2Ev
_ZN7Imf_3_015DeepFrameBuffer13ConstIteratorppEi
_ZN7Imf_3_015DeepFrameBuffer13ConstIteratorppEv
_ZN7Imf_3_015DeepFrameBuffer22insertSampleCountSliceERKNS_5SliceE
_ZN7Imf_3_015DeepFrameBuffer3endEv
_ZN7Imf_3_015DeepFrameBuffer4findEPKc
_ZN7Imf_3_015DeepFrameBuffer4findERKNSt3__112basic_stringIcNS1_11char_traitsIcEENS1_9allocatorIcEEEE
_ZN7Imf_3_015DeepFrameBuffer5beginEv
_ZN7Imf_3_015DeepFrameBuffer6insertEPKcRKNS_9DeepSliceE
_ZN7Imf_3_015DeepFrameBuffer6insertERKNSt3__112basic_stringIcNS1_11char_traitsIcEENS1_9allocatorIcEEEERKNS_9DeepSliceE
_ZN7Imf_3_015DeepFrameBuffer8IteratorC1ERKNSt3__114__map_iteratorINS2_15__tree_iteratorINS2_12__value_typeINS_4NameENS_9DeepSliceEEEPNS2_11__tree_nodeIS8_PvEExEEEE
_ZN7Imf_3_015DeepFrameBuffer8IteratorC1Ev
_ZN7Imf_3_015DeepFrameBuffer8IteratorC2ERKNSt3__114__map_iteratorINS2_15__tree_iteratorINS2_12__value_typeINS_4NameENS_9DeepSliceEEEPNS2_11__tree_nodeIS8_PvEExEEEE
_ZN7Imf_3_015DeepFrameBuffer8IteratorC2Ev
_ZN7Imf_3_015DeepFrameBuffer8IteratorppEi
_ZN7Imf_3_015DeepFrameBuffer8IteratorppEv
_ZN7Imf_3_015DeepFrameBuffer9findSliceEPKc
_ZN7Imf_3_015DeepFrameBuffer9findSliceERKNSt3__112basic_stringIcNS1_11char_traitsIcEENS1_9allocatorIcEEEE
_ZN7Imf_3_015DeepFrameBufferixEPKc
_ZN7Imf_3_015DeepFrameBufferixERKNSt3__112basic_stringIcNS1_11char_traitsIcEENS1_9allocatorIcEEEE
_ZN7Imf_3_015OpaqueAttribute13copyValueFromERKNS_9AttributeE
_ZN7Imf_3_015OpaqueAttribute13readValueFromERNS_7IStreamEii
_ZN7Imf_3_015OpaqueAttributeC1EPKc
_ZN7Imf_3_015OpaqueAttributeC1ERKS0_
_ZN7Imf_3_015OpaqueAttributeC2EPKc
_ZN7Imf_3_015OpaqueAttributeC2ERKS0_
_ZN7Imf_3_015OpaqueAttributeD0Ev
_ZN7Imf_3_015OpaqueAttributeD1Ev
_ZN7Imf_3_015OpaqueAttributeD2Ev
_ZN7Imf_3_015TiledOutputFile10copyPixelsERNS_14TiledInputFileE
_ZN7Imf_3_015TiledOutputFile10copyPixelsERNS_14TiledInputPartE
_ZN7Imf_3_015TiledOutputFile10copyPixelsERNS_9InputFileE
_ZN7Imf_3_015TiledOutputFile10copyPixelsERNS_9InputPartE
_ZN7Imf_3_015TiledOutputFile10writeTilesEiiiii
_ZN7Imf_3_015TiledOutputFile10writeTilesEiiiiii
_ZN7Imf_3_015TiledOutputFile14setFrameBufferERKNS_11FrameBufferE
_ZN7Imf_3_015TiledOutputFile18updatePreviewImageEPKNS_11PreviewRgbaE
_ZN7Imf_3_015TiledOutputFile9breakTileEiiiiiic
_ZN7Imf_3_015TiledOutputFile9writeTileEiii
_ZN7Imf_3_015TiledOutputFile9writeTileEiiii
_ZN7Imf_3_015TiledOutputFileC1EPKcRKNS_6HeaderEi
_ZN7Imf_3_015TiledOutputFileC1ERNS_7OStreamERKNS_6HeaderEi
_ZN7Imf_3_015TiledOutputFileC2EPKcRKNS_6HeaderEi
_ZN7Imf_3_015TiledOutputFileC2ERNS_7OStreamERKNS_6HeaderEi
_ZN7Imf_3_015TiledOutputFileD0Ev
_ZN7Imf_3_015TiledOutputFileD1Ev
_ZN7Imf_3_015TiledOutputFileD2Ev
_ZN7Imf_3_015TiledOutputPart10copyPixelsERNS_14TiledInputFileE
_ZN7Imf_3_015TiledOutputPart10copyPixelsERNS_14TiledInputPartE
_ZN7Imf_3_015TiledOutputPart10copyPixelsERNS_9InputFileE
_ZN7Imf_3_015TiledOutputPart10copyPixelsERNS_9InputPartE
_ZN7Imf_3_015TiledOutputPart10writeTilesEiiiii
_ZN7Imf_3_015TiledOutputPart10writeTilesEiiiiii
_ZN7Imf_3_015TiledOutputPart14setFrameBufferERKNS_11FrameBufferE
_ZN7Imf_3_015TiledOutputPart18updatePreviewImageEPKNS_11PreviewRgbaE
_ZN7Imf_3_015TiledOutputPart9breakTileEiiiiiic
_ZN7Imf_3_015TiledOutputPart9writeTileEiii
_ZN7Imf_3_015TiledOutputPart9writeTileEiiii
_ZN7Imf_3_015TiledOutputPartC1ERNS_19MultiPartOutputFileEi
_ZN7Imf_3_015TiledOutputPartC2ERNS_19MultiPartOutputFileEi
_ZN7Imf_3_015areCounterpartsERKNSt3__112basic_stringIcNS0_11char_traitsIcEENS0_9allocatorIcEEEES8_RKNS0_6vectorIS6_NS4_IS6_EEEE
_ZN7Imf_3_015defaultViewNameERKNSt3__16vectorINS0_12basic_stringIcNS0_11char_traitsIcEENS0_9allocatorIcEEEENS5_IS7_EEEE
_ZN7Imf_3_015envmapAttributeERKNS_6HeaderE
_ZN7Imf_3_015envmapAttributeERNS_6HeaderE
_ZN7Imf_3_015framesPerSecondERKNS_6HeaderE
_ZN7Imf_3_015framesPerSecondERNS_6HeaderE
_ZN7Imf_3_015isSupportedTypeERKNSt3__112basic_stringIcNS0_11char_traitsIcEENS0_9allocatorIcEEEE
_ZN7Imf_3_016GenericInputFile30readMagicNumberAndVersionFieldERNS_7IStreamERi
_ZN7Imf_3_016GenericInputFileC1Ev
_ZN7Imf_3_016GenericInputFileC2Ev
_ZN7Imf_3_016GenericInputFileD0Ev
_ZN7Imf_3_016GenericInputFileD1Ev
_ZN7Imf_3_016GenericInputFileD2Ev
_ZN7Imf_3_016addWorldToCameraERNS_6HeaderERKN9Imath_3_08Matrix44IfEE
_ZN7Imf_3_016capDateAttributeERKNS_6HeaderE
_ZN7Imf_3_016capDateAttributeERNS_6HeaderE
_ZN7Imf_3_016channelsInNoViewERKNS_11ChannelListERKNSt3__16vectorINS3_12basic_stringIcNS3_11char_traitsIcEENS3_9allocatorIcEEEENS8_ISA_EEEE
_ZN7Imf_3_016expTimeAttributeERKNS_6HeaderE
_ZN7Imf_3_016expTimeAttributeERNS_6HeaderE
_ZN7Imf_3_016hasWorldToCameraERKNS_6HeaderE
_ZN7Imf_3_016keyCodeAttributeERKNS_6HeaderE
_ZN7Imf_3_016keyCodeAttributeERNS_6HeaderE
_ZN7Imf_3_016lookModTransformERKNS_6HeaderE
_ZN7Imf_3_016lookModTransformERNS_6HeaderE
_ZN7Imf_3_016numLinesInBufferENS_11CompressionE
_ZN7Imf_3_016numLinesInBufferEPNS_10CompressorE
_ZN7Imf_3_016staticInitializeEv
_ZN7Imf_3_017GenericOutputFile31writeMagicNumberAndVersionFieldERNS_7OStreamEPKNS_6HeaderEi
_ZN7Imf_3_017GenericOutputFile31writeMagicNumberAndVersionFieldERNS_7OStreamERKNS_6HeaderE
_ZN7Imf_3_017GenericOutputFileC1Ev
_ZN7Imf_3_017GenericOutputFileC2Ev
_ZN7Imf_3_017GenericOutputFileD0Ev
_ZN7Imf_3_017GenericOutputFileD1Ev
_ZN7Imf_3_017GenericOutputFileD2Ev
_ZN7Imf_3_017ScanLineInputFile10readPixelsEi
_ZN7Imf_3_017ScanLineInputFile10readPixelsEii
_ZN7Imf_3_017ScanLineInputFile12rawPixelDataEiRPKcRi
_ZN7Imf_3_017ScanLineInputFile14setFrameBufferERKNS_11FrameBufferE
_ZN7Imf_3_017ScanLineInputFileC1ERKNS_6HeaderEPNS_7IStreamEi
_ZN7Imf_3_017ScanLineInputFileC2ERKNS_6HeaderEPNS_7IStreamEi
_ZN7Imf_3_017ScanLineInputFileD0Ev
_ZN7Imf_3_017ScanLineInputFileD1Ev
_ZN7Imf_3_017ScanLineInputFileD2Ev
_ZN7Imf_3_017addAdoptedNeutralERNS_6HeaderERKN9Imath_3_04Vec2IfEE
_ZN7Imf_3_017addChromaticitiesERNS_6HeaderERKNS_14ChromaticitiesE
_ZN7Imf_3_017addDeepImageStateERNS_6HeaderERKNS_14DeepImageStateE
_ZN7Imf_3_017addWhiteLuminanceERNS_6HeaderERKf
_ZN7Imf_3_017altitudeAttributeERKNS_6HeaderE
_ZN7Imf_3_017altitudeAttributeERNS_6HeaderE
_ZN7Imf_3_017apertureAttributeERKNS_6HeaderE
_ZN7Imf_3_017apertureAttributeERNS_6HeaderE
_ZN7Imf_3_017bytesPerLineTableERKNS_6HeaderERNSt3__16vectorIyNS3_9allocatorIyEEEE
_ZN7Imf_3_017channelInAllViewsERKNSt3__112basic_stringIcNS0_11char_traitsIcEENS0_9allocatorIcEEEERKNS_11ChannelListERKNS0_6vectorIS6_NS4_IS6_EEEE
_ZN7Imf_3_017commentsAttributeERKNS_6HeaderE
_ZN7Imf_3_017commentsAttributeERNS_6HeaderE
_ZN7Imf_3_017dataWindowForTileERKNS_15TileDescriptionEiiiiiiii
_ZN7Imf_3_017globalThreadCountEv
_ZN7Imf_3_017hasAdoptedNeutralERKNS_6HeaderE
_ZN7Imf_3_017hasChromaticitiesERKNS_6HeaderE
_ZN7Imf_3_017hasDeepImageStateERKNS_6HeaderE
_ZN7Imf_3_017hasWhiteLuminanceERKNS_6HeaderE
_ZN7Imf_3_017isDeepOpenExrFileEPKc
_ZN7Imf_3_017isDeepOpenExrFileERNS_7IStreamE
_ZN7Imf_3_017isoSpeedAttributeERKNS_6HeaderE
_ZN7Imf_3_017isoSpeedAttributeERNS_6HeaderE
_ZN7Imf_3_017latitudeAttributeERKNS_6HeaderE
_ZN7Imf_3_017latitudeAttributeERNS_6HeaderE
_ZN7Imf_3_017newTileCompressorENS_11CompressionEyyRKNS_6HeaderE
_ZN7Imf_3_017timeCodeAttributeERKNS_6HeaderE
_ZN7Imf_3_017timeCodeAttributeERNS_6HeaderE
_ZN7Imf_3_017xDensityAttributeERKNS_6HeaderE
_ZN7Imf_3_017xDensityAttributeERNS_6HeaderE
_ZN7Imf_3_018DeepTiledInputFile14setFrameBufferERKNS_15DeepFrameBufferE
_ZN7Imf_3_018DeepTiledInputFile20readPixelSampleCountEiii
_ZN7Imf_3_018DeepTiledInputFile20readPixelSampleCountEiiii
_ZN7Imf_3_018DeepTiledInputFile21readPixelSampleCountsEiiiii
_ZN7Imf_3_018DeepTiledInputFile21readPixelSampleCountsEiiiiii
_ZN7Imf_3_018DeepTiledInputFile8readTileEiii
_ZN7Imf_3_018DeepTiledInputFile8readTileEiiii
_ZN7Imf_3_018DeepTiledInputFile9readTilesEiiiii
_ZN7Imf_3_018DeepTiledInputFile9readTilesEiiiiii
_ZN7Imf_3_018DeepTiledInputFileC1EPKci
_ZN7Imf_3_018DeepTiledInputFileC1ERNS_7IStreamEi
_ZN7Imf_3_018DeepTiledInputFileC2EPKci
_ZN7Imf_3_018DeepTiledInputFileC2ERNS_7IStreamEi
_ZN7Imf_3_018DeepTiledInputFileD0Ev
_ZN7Imf_3_018DeepTiledInputFileD1Ev
_ZN7Imf_3_018DeepTiledInputFileD2Ev
_ZN7Imf_3_018DeepTiledInputPart14setFrameBufferERKNS_15DeepFrameBufferE
_ZN7Imf_3_018DeepTiledInputPart20readPixelSampleCountEiii
_ZN7Imf_3_018DeepTiledInputPart20readPixelSampleCountEiiii
_ZN7Imf_3_018DeepTiledInputPart21readPixelSampleCountsEiiiii
_ZN7Imf_3_018DeepTiledInputPart21readPixelSampleCountsEiiiiii
_ZN7Imf_3_018DeepTiledInputPart8readTileEiii
_ZN7Imf_3_018DeepTiledInputPart8readTileEiiii
_ZN7Imf_3_018DeepTiledInputPart9readTilesEiiiii
_ZN7Imf_3_018DeepTiledInputPart9readTilesEiiiiii
_ZN7Imf_3_018DeepTiledInputPartC1ERNS_18MultiPartInputFileEi
_ZN7Imf_3_018DeepTiledInputPartC2ERNS_18MultiPartInputFileEi
_ZN7Imf_3_018MultiPartInputFile14flushPartCacheEv
_ZN7Imf_3_018MultiPartInputFileC1EPKcib
_ZN7Imf_3_018MultiPartInputFileC1ERNS_7IStreamEib
_ZN7Imf_3_018MultiPartInputFileC2EPKcib
_ZN7Imf_3_018MultiPartInputFileC2ERNS_7IStreamEib
_ZN7Imf_3_018MultiPartInputFileD0Ev
_ZN7Imf_3_018MultiPartInputFileD1Ev
_ZN7Imf_3_018MultiPartInputFileD2Ev
_ZN7Imf_3_018TiledRgbaInputFile12setLayerNameERKNSt3__112basic_stringIcNS1_11char_traitsIcEENS1_9allocatorIcEEEE
_ZN7Imf_3_018TiledRgbaInputFile14setFrameBufferEPNS_4RgbaEyy
_ZN7Imf_3_018TiledRgbaInputFile8readTileEiii
_ZN7Imf_3_018TiledRgbaInputFile8readTileEiiii
_ZN7Imf_3_018TiledRgbaInputFile9readTilesEiiiii
_ZN7Imf_3_018TiledRgbaInputFile9readTilesEiiiiii
_ZN7Imf_3_018TiledRgbaInputFileC1EPKcRKNSt3__112basic_stringIcNS3_11char_traitsIcEENS3_9allocatorIcEEEEi
_ZN7Imf_3_018TiledRgbaInputFileC1EPKci
_ZN7Imf_3_018TiledRgbaInputFileC1ERNS_7IStreamERKNSt3__112basic_stringIcNS3_11char_traitsIcEENS3_9allocatorIcEEEEi
_ZN7Imf_3_018TiledRgbaInputFileC1ERNS_7IStreamEi
_ZN7Imf_3_018TiledRgbaInputFileC2EPKcRKNSt3__112basic_stringIcNS3_11char_traitsIcEENS3_9allocatorIcEEEEi
_ZN7Imf_3_018TiledRgbaInputFileC2EPKci
_ZN7Imf_3_018TiledRgbaInputFileC2ERNS_7IStreamERKNSt3__112basic_stringIcNS3_11char_traitsIcEENS3_9allocatorIcEEEEi
_ZN7Imf_3_018TiledRgbaInputFileC2ERNS_7IStreamEi
_ZN7Imf_3_018TiledRgbaInputFileD0Ev
_ZN7Imf_3_018TiledRgbaInputFileD1Ev
_ZN7Imf_3_018TiledRgbaInputFileD2Ev
_ZN7Imf_3_018addFramesPerSecondERNS_6HeaderERKNS_8RationalE
_ZN7Imf_3_018channelInOtherViewERKNSt3__112basic_stringIcNS0_11char_traitsIcEENS0_9allocatorIcEEEERKNS_11ChannelListERKNS0_6vectorIS6_NS4_IS6_EEEES8_
_ZN7Imf_3_018dataWindowForLevelERKNS_15TileDescriptionEiiiiii
_ZN7Imf_3_018hasFramesPerSecondERKNS_6HeaderE
_ZN7Imf_3_018isLossyCompressionENS_11CompressionE
_ZN7Imf_3_018isTiledOpenExrFileEPKc
_ZN7Imf_3_018isTiledOpenExrFileERNS_7IStreamE
_ZN7Imf_3_018isValidCompressionENS_11CompressionE
_ZN7Imf_3_018longitudeAttributeERKNS_6HeaderE
_ZN7Imf_3_018longitudeAttributeERNS_6HeaderE
_ZN7Imf_3_018multiViewAttributeERKNS_6HeaderE
_ZN7Imf_3_018multiViewAttributeERNS_6HeaderE
_ZN7Imf_3_018originalDataWindowERKNS_6HeaderE
_ZN7Imf_3_018originalDataWindowERNS_6HeaderE
_ZN7Imf_3_018renderingTransformERKNS_6HeaderE
_ZN7Imf_3_018renderingTransformERNS_6HeaderE
_ZN7Imf_3_018utcOffsetAttributeERKNS_6HeaderE
_ZN7Imf_3_018utcOffsetAttributeERNS_6HeaderE
_ZN7Imf_3_018wrapmodesAttributeERKNS_6HeaderE
_ZN7Imf_3_018wrapmodesAttributeERNS_6HeaderE
_ZN7Imf_3_019DeepTiledOutputFile10copyPixelsERNS_18DeepTiledInputFileE
_ZN7Imf_3_019DeepTiledOutputFile10copyPixelsERNS_18DeepTiledInputPartE
_ZN7Imf_3_019DeepTiledOutputFile10writeTilesEiiiii
_ZN7Imf_3_019DeepTiledOutputFile10writeTilesEiiiiii
_ZN7Imf_3_019DeepTiledOutputFile14setFrameBufferERKNS_15DeepFrameBufferE
_ZN7Imf_3_019DeepTiledOutputFile18updatePreviewImageEPKNS_11PreviewRgbaE
_ZN7Imf_3_019DeepTiledOutputFile9breakTileEiiiiiic
_ZN7Imf_3_019DeepTiledOutputFile9writeTileEiii
_ZN7Imf_3_019DeepTiledOutputFile9writeTileEiiii
_ZN7Imf_3_019DeepTiledOutputFileC1EPKcRKNS_6HeaderEi
_ZN7Imf_3_019DeepTiledOutputFileC1ERNS_7OStreamERKNS_6HeaderEi
_ZN7Imf_3_019DeepTiledOutputFileC2EPKcRKNS_6HeaderEi
_ZN7Imf_3_019DeepTiledOutputFileC2ERNS_7OStreamERKNS_6HeaderEi
_ZN7Imf_3_019DeepTiledOutputFileD0Ev
_ZN7Imf_3_019DeepTiledOutputFileD1Ev
_ZN7Imf_3_019DeepTiledOutputFileD2Ev
_ZN7Imf_3_019DeepTiledOutputPart10copyPixelsERNS_18DeepTiledInputFileE
_ZN7Imf_3_019DeepTiledOutputPart10copyPixelsERNS_18DeepTiledInputPartE
_ZN7Imf_3_019DeepTiledOutputPart10writeTilesEiiiii
_ZN7Imf_3_019DeepTiledOutputPart10writeTilesEiiiiii
_ZN7Imf_3_019DeepTiledOutputPart14setFrameBufferERKNS_15DeepFrameBufferE
_ZN7Imf_3_019DeepTiledOutputPart18updatePreviewImageEPKNS_11PreviewRgbaE
_ZN7Imf_3_019DeepTiledOutputPart9breakTileEiiiiiic
_ZN7Imf_3_019DeepTiledOutputPart9writeTileEiii
_ZN7Imf_3_019DeepTiledOutputPart9writeTileEiiii
_ZN7Imf_3_019DeepTiledOutputPartC1ERNS_19MultiPartOutputFileEi
_ZN7Imf_3_019DeepTiledOutputPartC2ERNS_19MultiPartOutputFileEi
_ZN7Imf_3_019MultiPartOutputFileC1EPKcPKNS_6HeaderEibi
_ZN7Imf_3_019MultiPartOutputFileC1ERNS_7OStreamEPKNS_6HeaderEibi
_ZN7Imf_3_019MultiPartOutputFileC2EPKcPKNS_6HeaderEibi
_ZN7Imf_3_019MultiPartOutputFileC2ERNS_7OStreamEPKNS_6HeaderEibi
_ZN7Imf_3_019MultiPartOutputFileD0Ev
_ZN7Imf_3_019MultiPartOutputFileD1Ev
_ZN7Imf_3_019MultiPartOutputFileD2Ev
_ZN7Imf_3_019TiledRgbaOutputFile10writeTilesEiiiii
_ZN7Imf_3_019TiledRgbaOutputFile10writeTilesEiiiiii
_ZN7Imf_3_019TiledRgbaOutputFile14setFrameBufferEPKNS_4RgbaEyy
_ZN7Imf_3_019TiledRgbaOutputFile18updatePreviewImageEPKNS_11PreviewRgbaE
_ZN7Imf_3_019TiledRgbaOutputFile9breakTileEiiiiiic
_ZN7Imf_3_019TiledRgbaOutputFile9writeTileEiii
_ZN7Imf_3_019TiledRgbaOutputFile9writeTileEiiii
_ZN7Imf_3_019TiledRgbaOutputFileC1EPKcRKNS_6HeaderENS_12RgbaChannelsEiiNS_9LevelModeENS_17LevelRoundingModeEi
_ZN7Imf_3_019TiledRgbaOutputFileC1EPKciiNS_9LevelModeENS_17LevelRoundingModeERKN9Imath_3_03BoxINS5_4Vec2IiEEEESB_NS_12RgbaChannelsEfNS7_IfEEfNS_9LineOrderENS_11CompressionEi
_ZN7Imf_3_019TiledRgbaOutputFileC1EPKciiiiNS_9LevelModeENS_17LevelRoundingModeENS_12RgbaChannelsEfN9Imath_3_04Vec2IfEEfNS_9LineOrderENS_11CompressionEi
_ZN7Imf_3_019TiledRgbaOutputFileC1ERNS_7OStreamERKNS_6HeaderENS_12RgbaChannelsEiiNS_9LevelModeENS_17LevelRoundingModeEi
_ZN7Imf_3_019TiledRgbaOutputFileC2EPKcRKNS_6HeaderENS_12RgbaChannelsEiiNS_9LevelModeENS_17LevelRoundingModeEi
_ZN7Imf_3_019TiledRgbaOutputFileC2EPKciiNS_9LevelModeENS_17LevelRoundingModeERKN9Imath_3_03BoxINS5_4Vec2IiEEEESB_NS_12RgbaChannelsEfNS7_IfEEfNS_9LineOrderENS_11CompressionEi
_ZN7Imf_3_019TiledRgbaOutputFileC2EPKciiiiNS_9LevelModeENS_17LevelRoundingModeENS_12RgbaChannelsEfN9Imath_3_04Vec2IfEEfNS_9LineOrderENS_11CompressionEi
_ZN7Imf_3_019TiledRgbaOutputFileC2ERNS_7OStreamERKNS_6HeaderENS_12RgbaChannelsEiiNS_9LevelModeENS_17LevelRoundingModeEi
_ZN7Imf_3_019TiledRgbaOutputFileD0Ev
_ZN7Imf_3_019TiledRgbaOutputFileD1Ev
_ZN7Imf_3_019TiledRgbaOutputFileD2Ev
_ZN7Imf_3_019addLookModTransformERNS_6HeaderERKNSt3__112basic_stringIcNS2_11char_traitsIcEENS2_9allocatorIcEEEE
_ZN7Imf_3_019copyFromFrameBufferERPcRPKcS3_yNS_10Compressor6FormatENS_9PixelTypeE
_ZN7Imf_3_019copyIntoFrameBufferERPKcPcS3_ybdNS_10Compressor6FormatENS_9PixelTypeES6_
_ZN7Imf_3_019dwaCompressionLevelERKNS_6HeaderE
_ZN7Imf_3_019dwaCompressionLevelERNS_6HeaderE
_ZN7Imf_3_019hasLookModTransformERKNS_6HeaderE
_ZN7Imf_3_019idManifestAttributeERKNS_6HeaderE
_ZN7Imf_3_019idManifestAttributeERNS_6HeaderE
_ZN7Imf_3_019viewFromChannelNameERKNSt3__112basic_stringIcNS0_11char_traitsIcEENS0_9allocatorIcEEEERKNS0_6vectorIS6_NS4_IS6_EEEE
_ZN7Imf_3_019worldToNDCAttributeERKNS_6HeaderE
_ZN7Imf_3_019worldToNDCAttributeERNS_6HeaderE
_ZN7Imf_3_020CompressedIDManifestC1ERKNS_10IDManifestE
_ZN7Imf_3_020CompressedIDManifestC1ERKS0_
_ZN7Imf_3_020CompressedIDManifestC1Ev
_ZN7Imf_3_020CompressedIDManifestC2ERKNS_10IDManifestE
_ZN7Imf_3_020CompressedIDManifestC2ERKS0_
_ZN7Imf_3_020CompressedIDManifestC2Ev
_ZN7Imf_3_020CompressedIDManifestD1Ev
_ZN7Imf_3_020CompressedIDManifestD2Ev
_ZN7Imf_3_020CompressedIDManifestaSERKS0_
_ZN7Imf_3_020precalculateTileInfoERKNS_15TileDescriptionEiiiiRPiS4_RiS5_
_ZN7Imf_3_020setGlobalThreadCountEi
_ZN7Imf_3_021CompositeDeepScanLine10readPixelsEii
_ZN7Imf_3_021CompositeDeepScanLine14setCompositingEPNS_15DeepCompositingE
_ZN7Imf_3_021CompositeDeepScanLine14setFrameBufferERKNS_11FrameBufferE
_ZN7Imf_3_021CompositeDeepScanLine9addSourceEPNS_21DeepScanLineInputFileE
_ZN7Imf_3_021CompositeDeepScanLine9addSourceEPNS_21DeepScanLineInputPartE
_ZN7Imf_3_021CompositeDeepScanLineC1Ev
_ZN7Imf_3_021CompositeDeepScanLineC2Ev
_ZN7Imf_3_021CompositeDeepScanLineD0Ev
_ZN7Imf_3_021CompositeDeepScanLineD1Ev
_ZN7Imf_3_021CompositeDeepScanLineD2Ev
_ZN7Imf_3_021DeepScanLineInputFile10readPixelsEi
_ZN7Imf_3_021DeepScanLineInputFile10readPixelsEii
_ZN7Imf_3_021DeepScanLineInputFile12rawPixelDataEiPcRy
_ZN7Imf_3_021DeepScanLineInputFile14setFrameBufferERKNS_15DeepFrameBufferE
_ZN7Imf_3_021DeepScanLineInputFile21readPixelSampleCountsEi
_ZN7Imf_3_021DeepScanLineInputFile21readPixelSampleCountsEii
_ZN7Imf_3_021DeepScanLineInputFileC1EPKci
_ZN7Imf_3_021DeepScanLineInputFileC1ERKNS_6HeaderEPNS_7IStreamEii
_ZN7Imf_3_021DeepScanLineInputFileC1ERNS_7IStreamEi
_ZN7Imf_3_021DeepScanLineInputFileC2EPKci
_ZN7Imf_3_021DeepScanLineInputFileC2ERKNS_6HeaderEPNS_7IStreamEii
_ZN7Imf_3_021DeepScanLineInputFileC2ERNS_7IStreamEi
_ZN7Imf_3_021DeepScanLineInputFileD0Ev
_ZN7Imf_3_021DeepScanLineInputFileD1Ev
_ZN7Imf_3_021DeepScanLineInputFileD2Ev
_ZN7Imf_3_021DeepScanLineInputPart10readPixelsEi
_ZN7Imf_3_021DeepScanLineInputPart10readPixelsEii
_ZN7Imf_3_021DeepScanLineInputPart12rawPixelDataEiPcRy
_ZN7Imf_3_021DeepScanLineInputPart14setFrameBufferERKNS_15DeepFrameBufferE
_ZN7Imf_3_021DeepScanLineInputPart21readPixelSampleCountsEi
_ZN7Imf_3_021DeepScanLineInputPart21readPixelSampleCountsEii
_ZN7Imf_3_021DeepScanLineInputPartC1ERNS_18MultiPartInputFileEi
_ZN7Imf_3_021DeepScanLineInputPartC2ERNS_18MultiPartInputFileEi
_ZN7Imf_3_021addOriginalDataWindowERNS_6HeaderERKN9Imath_3_03BoxINS2_4Vec2IiEEEE
_ZN7Imf_3_021addRenderingTransformERNS_6HeaderERKNSt3__112basic_stringIcNS2_11char_traitsIcEENS2_9allocatorIcEEEE
_ZN7Imf_3_021bytesPerDeepLineTableERKNS_6HeaderEPciiRNSt3__16vectorIyNS4_9allocatorIyEEEE
_ZN7Imf_3_021bytesPerDeepLineTableERKNS_6HeaderEiiPKciiRNSt3__16vectorIyNS5_9allocatorIyEEEE
_ZN7Imf_3_021calculateBytesPerLineERKNS_6HeaderEPciiiiiiRNSt3__16vectorIiNS4_9allocatorIiEEEES9_RNS5_IyNS6_IyEEEE
_ZN7Imf_3_021fillChannelWithZeroesERPcNS_10Compressor6FormatENS_9PixelTypeEy
_ZN7Imf_3_021hasOriginalDataWindowERKNS_6HeaderE
_ZN7Imf_3_021hasRenderingTransformERKNS_6HeaderE
_ZN7Imf_3_022DeepScanLineOutputFile10copyPixelsERNS_21DeepScanLineInputFileE
_ZN7Imf_3_022DeepScanLineOutputFile10copyPixelsERNS_21DeepScanLineInputPartE
_ZN7Imf_3_022DeepScanLineOutputFile11writePixelsEi
_ZN7Imf_3_022DeepScanLineOutputFile14setFrameBufferERKNS_15DeepFrameBufferE
_ZN7Imf_3_022DeepScanLineOutputFile18updatePreviewImageEPKNS_11PreviewRgbaE
_ZN7Imf_3_022DeepScanLineOutputFileC1EPKcRKNS_6HeaderEi
_ZN7Imf_3_022DeepScanLineOutputFileC1ERNS_7OStreamERKNS_6HeaderEi
_ZN7Imf_3_022DeepScanLineOutputFileC2EPKcRKNS_6HeaderEi
_ZN7Imf_3_022DeepScanLineOutputFileC2ERNS_7OStreamERKNS_6HeaderEi
_ZN7Imf_3_022DeepScanLineOutputFileD0Ev
_ZN7Imf_3_022DeepScanLineOutputFileD1Ev
_ZN7Imf_3_022DeepScanLineOutputFileD2Ev
_ZN7Imf_3_022DeepScanLineOutputPart10copyPixelsERNS_21DeepScanLineInputFileE
_ZN7Imf_3_022DeepScanLineOutputPart10copyPixelsERNS_21DeepScanLineInputPartE
_ZN7Imf_3_022DeepScanLineOutputPart11writePixelsEi
_ZN7Imf_3_022DeepScanLineOutputPart14setFrameBufferERKNS_15DeepFrameBufferE
_ZN7Imf_3_022DeepScanLineOutputPart18updatePreviewImageEPKNS_11PreviewRgbaE
_ZN7Imf_3_022DeepScanLineOutputPartC1ERNS_19MultiPartOutputFileEi
_ZN7Imf_3_022DeepScanLineOutputPartC2ERNS_19MultiPartOutputFileEi
_ZN7Imf_3_022addDwaCompressionLevelERNS_6HeaderERKf
_ZN7Imf_3_022calculateBytesPerPixelERKNS_6HeaderE
_ZN7Imf_3_022hasDwaCompressionLevelERKNS_6HeaderE
_ZN7Imf_3_022isMultiPartOpenExrFileEPKc
_ZN7Imf_3_022isMultiPartOpenExrFileERNS_7IStreamE
_ZN7Imf_3_022isValidDeepCompressionENS_11CompressionE
_ZN7Imf_3_022worldToCameraAttributeERKNS_6HeaderE
_ZN7Imf_3_022worldToCameraAttributeERNS_6HeaderE
_ZN7Imf_3_023adoptedNeutralAttributeERKNS_6HeaderE
_ZN7Imf_3_023adoptedNeutralAttributeERNS_6HeaderE
_ZN7Imf_3_023chromaticitiesAttributeERKNS_6HeaderE
_ZN7Imf_3_023chromaticitiesAttributeERNS_6HeaderE
_ZN7Imf_3_023copyFromDeepFrameBufferERPcPKcS0_xxiiiiiiixxxNS_10Compressor6FormatENS_9PixelTypeE
_ZN7Imf_3_023copyIntoDeepFrameBufferERPKcPcS1_xxiiiiiiixxxbdNS_10Compressor6FormatENS_9PixelTypeES6_
_ZN7Imf_3_023deepImageStateAttributeERKNS_6HeaderE
_ZN7Imf_3_023deepImageStateAttributeERNS_6HeaderE
_ZN7Imf_3_023getChunkOffsetTableSizeERKNS_6HeaderE
_ZN7Imf_3_023offsetInLineBufferTableERKNSt3__16vectorIyNS0_9allocatorIyEEEEiRS4_
_ZN7Imf_3_023offsetInLineBufferTableERKNSt3__16vectorIyNS0_9allocatorIyEEEEiiiRS4_
_ZN7Imf_3_023whiteLuminanceAttributeERKNS_6HeaderE
_ZN7Imf_3_023whiteLuminanceAttributeERNS_6HeaderE
_ZN7Imf_3_024framesPerSecondAttributeERKNS_6HeaderE
_ZN7Imf_3_024framesPerSecondAttributeERNS_6HeaderE
_ZN7Imf_3_025lookModTransformAttributeERKNS_6HeaderE
_ZN7Imf_3_025lookModTransformAttributeERNS_6HeaderE
_ZN7Imf_3_027originalDataWindowAttributeERKNS_6HeaderE
_ZN7Imf_3_027originalDataWindowAttributeERNS_6HeaderE
_ZN7Imf_3_027renderingTransformAttributeERKNS_6HeaderE
_ZN7Imf_3_027renderingTransformAttributeERNS_6HeaderE
_ZN7Imf_3_028dwaCompressionLevelAttributeERKNS_6HeaderE
_ZN7Imf_3_028dwaCompressionLevelAttributeERNS_6HeaderE
_ZN7Imf_3_028getTiledChunkOffsetTableSizeERKNS_6HeaderE
_ZN7Imf_3_05ArrayINS0_IcEEE11resizeEraseEl
_ZN7Imf_3_05ArrayIbE11resizeEraseEl
_ZN7Imf_3_05ArrayIcE11resizeEraseEl
_ZN7Imf_3_05ArrayIjE11resizeEraseEl
_ZN7Imf_3_05CpuIdC1Ev
_ZN7Imf_3_05CpuIdC2Ev
_ZN7Imf_3_05Slice4MakeENS_9PixelTypeEPKvRKN9Imath_3_03BoxINS4_4Vec2IiEEEEyyiidbb
_ZN7Imf_3_05Slice4MakeENS_9PixelTypeEPKvRKN9Imath_3_04Vec2IiEExxyyiidbb
_ZN7Imf_3_05SliceC1ENS_9PixelTypeEPcyyiidbb
_ZN7Imf_3_05SliceC2ENS_9PixelTypeEPcyyiidbb
_ZN7Imf_3_05focusERKNS_6HeaderE
_ZN7Imf_3_05focusERNS_6HeaderE
_ZN7Imf_3_05ownerERKNS_6HeaderE
_ZN7Imf_3_05ownerERNS_6HeaderE
_ZN7Imf_3_06Header10chunkCountEv
_ZN7Imf_3_06Header10dataWindowEv
_ZN7Imf_3_06Header10setVersionEi
_ZN7Imf_3_06Header11compressionEv
_ZN7Imf_3_06Header12previewImageEv
_ZN7Imf_3_06Header12readsNothingEv
_ZN7Imf_3_06Header13ConstIteratorC1ERKNS0_8IteratorE
_ZN7Imf_3_06Header13ConstIteratorC1ERKNSt3__120__map_const_iteratorINS2_21__tree_const_iteratorINS2_12__value_typeINS_4NameEPNS_9AttributeEEEPNS2_11__tree_nodeIS9_PvEExEEEE
_ZN7Imf_3_06Header13ConstIteratorC1Ev
_ZN7Imf_3_06Header13ConstIteratorC2ERKNS0_8IteratorE
_ZN7Imf_3_06Header13ConstIteratorC2ERKNSt3__120__map_const_iteratorINS2_21__tree_const_iteratorINS2_12__value_typeINS_4NameEPNS_9AttributeEEEPNS2_11__tree_nodeIS9_PvEExEEEE
_ZN7Imf_3_06Header13ConstIteratorC2Ev
_ZN7Imf_3_06Header13ConstIteratorppEi
_ZN7Imf_3_06Header13ConstIteratorppEv
_ZN7Imf_3_06Header13displayWindowEv
_ZN7Imf_3_06Header13setChunkCountEi
_ZN7Imf_3_06Header14setMaxTileSizeEii
_ZN7Imf_3_06Header15setMaxImageSizeEii
_ZN7Imf_3_06Header15setPreviewImageERKNS_12PreviewImageE
_ZN7Imf_3_06Header15tileDescriptionEv
_ZN7Imf_3_06Header16pixelAspectRatioEv
_ZN7Imf_3_06Header17screenWindowWidthEv
_ZN7Imf_3_06Header18screenWindowCenterEv
_ZN7Imf_3_06Header18setTileDescriptionERKNS_15TileDescriptionE
_ZN7Imf_3_06Header3endEv
_ZN7Imf_3_06Header4findEPKc
_ZN7Imf_3_06Header4findERKNSt3__112basic_stringIcNS1_11char_traitsIcEENS1_9allocatorIcEEEE
_ZN7Imf_3_06Header4nameEv
_ZN7Imf_3_06Header4typeEv
_ZN7Imf_3_06Header4viewEv
_ZN7Imf_3_06Header5beginEv
_ZN7Imf_3_06Header5eraseEPKc
_ZN7Imf_3_06Header5eraseERKNSt3__112basic_stringIcNS1_11char_traitsIcEENS1_9allocatorIcEEEE
_ZN7Imf_3_06Header6insertEPKcRKNS_9AttributeE
_ZN7Imf_3_06Header6insertERKNSt3__112basic_stringIcNS1_11char_traitsIcEENS1_9allocatorIcEEEERKNS_9AttributeE
_ZN7Imf_3_06Header7setNameERKNSt3__112basic_stringIcNS1_11char_traitsIcEENS1_9allocatorIcEEEE
_ZN7Imf_3_06Header7setTypeERKNSt3__112basic_stringIcNS1_11char_traitsIcEENS1_9allocatorIcEEEE
_ZN7Imf_3_06Header7setViewERKNSt3__112basic_stringIcNS1_11char_traitsIcEENS1_9allocatorIcEEEE
_ZN7Imf_3_06Header7versionEv
_ZN7Imf_3_06Header8IteratorC1ERKNSt3__114__map_iteratorINS2_15__tree_iteratorINS2_12__value_typeINS_4NameEPNS_9AttributeEEEPNS2_11__tree_nodeIS9_PvEExEEEE
_ZN7Imf_3_06Header8IteratorC1Ev
_ZN7Imf_3_06Header8IteratorC2ERKNSt3__114__map_iteratorINS2_15__tree_iteratorINS2_12__value_typeINS_4NameEPNS_9AttributeEEEPNS2_11__tree_nodeIS9_PvEExEEEE
_ZN7Imf_3_06Header8IteratorC2Ev
_ZN7Imf_3_06Header8IteratorppEi
_ZN7Imf_3_06Header8IteratorppEv
_ZN7Imf_3_06Header8channelsEv
_ZN7Imf_3_06Header8readFromERNS_7IStreamERi
_ZN7Imf_3_06Header9lineOrderEv
_ZN7Imf_3_06HeaderC1ERKN9Imath_3_03BoxINS1_4Vec2IiEEEES7_fRKNS3_IfEEfNS_9LineOrderENS_11CompressionE
_ZN7Imf_3_06HeaderC1ERKS0_
_ZN7Imf_3_06HeaderC1EiiRKN9Imath_3_03BoxINS1_4Vec2IiEEEEfRKNS3_IfEEfNS_9LineOrderENS_11CompressionE
_ZN7Imf_3_06HeaderC1EiifRKN9Imath_3_04Vec2IfEEfNS_9LineOrderENS_11CompressionE
_ZN7Imf_3_06HeaderC2ERKN9Imath_3_03BoxINS1_4Vec2IiEEEES7_fRKNS3_IfEEfNS_9LineOrderENS_11CompressionE
_ZN7Imf_3_06HeaderC2ERKS0_
_ZN7Imf_3_06HeaderC2EiiRKN9Imath_3_03BoxINS1_4Vec2IiEEEEfRKNS3_IfEEfNS_9LineOrderENS_11CompressionE
_ZN7Imf_3_06HeaderC2EiifRKN9Imath_3_04Vec2IfEEfNS_9LineOrderENS_11CompressionE
_ZN7Imf_3_06HeaderD1Ev
_ZN7Imf_3_06HeaderD2Ev
_ZN7Imf_3_06HeaderaSERKS0_
_ZN7Imf_3_06HeaderixEPKc
_ZN7Imf_3_06HeaderixERKNSt3__112basic_stringIcNS1_11char_traitsIcEENS1_9allocatorIcEEEE
_ZN7Imf_3_06envmapERKNS_6HeaderE
_ZN7Imf_3_06envmapERNS_6HeaderE
_ZN7Imf_3_07Array2DINS_4RgbaEE11resizeEraseEll
_ZN7Imf_3_07Array2DINS_4RgbaEEC1Ev
_ZN7Imf_3_07Array2DINS_4RgbaEEC2Ev
_ZN7Imf_3_07Array2DINS_4RgbaEED1Ev
_ZN7Imf_3_07Array2DINS_4RgbaEED2Ev
_ZN7Imf_3_07Array2DINS_4RgbaEEixEl
_ZN7Imf_3_07Array2DIjE11resizeEraseEll
_ZN7Imf_3_07Array2DIjEC1Ev
_ZN7Imf_3_07Array2DIjEC2Ev
_ZN7Imf_3_07Array2DIjED1Ev
_ZN7Imf_3_07Array2DIjED2Ev
_ZN7Imf_3_07Array2DIjEixEl
_ZN7Imf_3_07ChannelC1ENS_9PixelTypeEiib
_ZN7Imf_3_07ChannelC2ENS_9PixelTypeEiib
_ZN7Imf_3_07CubeMap10sizeOfFaceERKN9Imath_3_03BoxINS1_4Vec2IiEEEE
_ZN7Imf_3_07CubeMap13pixelPositionENS_11CubeMapFaceERKN9Imath_3_03BoxINS2_4Vec2IiEEEENS4_IfEE
_ZN7Imf_3_07CubeMap17dataWindowForFaceENS_11CubeMapFaceERKN9Imath_3_03BoxINS2_4Vec2IiEEEE
_ZN7Imf_3_07CubeMap20faceAndPixelPositionERKN9Imath_3_04Vec3IfEERKNS1_3BoxINS1_4Vec2IiEEEERNS_11CubeMapFaceERNS7_IfEE
_ZN7Imf_3_07CubeMap9directionENS_11CubeMapFaceERKN9Imath_3_03BoxINS2_4Vec2IiEEEERKNS4_IfEE
_ZN7Imf_3_07IStream16readMemoryMappedEi
_ZN7Imf_3_07IStream5clearEv
_ZN7Imf_3_07IStreamC2EPKc
_ZN7Imf_3_07IStreamD0Ev
_ZN7Imf_3_07IStreamD1Ev
_ZN7Imf_3_07IStreamD2Ev
_ZN7Imf_3_07KeyCode11setFilmTypeEi
_ZN7Imf_3_07KeyCode13setPerfOffsetEi
_ZN7Imf_3_07KeyCode14setFilmMfcCodeEi
_ZN7Imf_3_07KeyCode16setPerfsPerCountEi
_ZN7Imf_3_07KeyCode16setPerfsPerFrameEi
_ZN7Imf_3_07KeyCode8setCountEi
_ZN7Imf_3_07KeyCode9setPrefixEi
_ZN7Imf_3_07KeyCodeC1ERKS0_
_ZN7Imf_3_07KeyCodeC1Eiiiiiii
_ZN7Imf_3_07KeyCodeC2ERKS0_
_ZN7Imf_3_07KeyCodeC2Eiiiiiii
_ZN7Imf_3_07KeyCodeaSERKS0_
_ZN7Imf_3_07OStreamC2EPKc
_ZN7Imf_3_07OStreamD0Ev
_ZN7Imf_3_07OStreamD1Ev
_ZN7Imf_3_07OStreamD2Ev
_ZN7Imf_3_07RgbaYca13fixSaturationERKN9Imath_3_04Vec3IfEEiPKPKNS_4RgbaEPS6_
_ZN7Imf_3_07RgbaYca18decimateChromaVertEiPKPKNS_4RgbaEPS1_
_ZN7Imf_3_07RgbaYca19decimateChromaHorizEiPKNS_4RgbaEPS1_
_ZN7Imf_3_07RgbaYca21reconstructChromaVertEiPKPKNS_4RgbaEPS1_
_ZN7Imf_3_07RgbaYca22reconstructChromaHorizEiPKNS_4RgbaEPS1_
_ZN7Imf_3_07RgbaYca8roundYCAEijjPKNS_4RgbaEPS1_
_ZN7Imf_3_07RgbaYca9RGBAtoYCAERKN9Imath_3_04Vec3IfEEibPKNS_4RgbaEPS6_
_ZN7Imf_3_07RgbaYca9YCAtoRGBAERKN9Imath_3_04Vec3IfEEiPKNS_4RgbaEPS6_
_ZN7Imf_3_07RgbaYca9computeYwERKNS_14ChromaticitiesE
_ZN7Imf_3_07capDateERKNS_6HeaderE
_ZN7Imf_3_07capDateERNS_6HeaderE
_ZN7Imf_3_07expTimeERKNS_6HeaderE
_ZN7Imf_3_07expTimeERNS_6HeaderE
_ZN7Imf_3_07isImageERKNSt3__112basic_stringIcNS0_11char_traitsIcEENS0_9allocatorIcEEEE
_ZN7Imf_3_07isTiledERKNSt3__112basic_stringIcNS0_11char_traitsIcEENS0_9allocatorIcEEEE
_ZN7Imf_3_07keyCodeERKNS_6HeaderE
_ZN7Imf_3_07keyCodeERNS_6HeaderE
_ZN7Imf_3_08RGBtoXYZERKNS_14ChromaticitiesEf
_ZN7Imf_3_08RationalC1Ed
_ZN7Imf_3_08RationalC2Ed
_ZN7Imf_3_08TimeCode10setMinutesEi
_ZN7Imf_3_08TimeCode10setSecondsEi
_ZN7Imf_3_08TimeCode11setUserDataEj
_ZN7Imf_3_08TimeCode12setDropFrameEb
_ZN7Imf_3_08TimeCode13setColorFrameEb
_ZN7Imf_3_08TimeCode13setFieldPhaseEb
_ZN7Imf_3_08TimeCode14setBinaryGroupEii
_ZN7Imf_3_08TimeCode15setTimeAndFlagsEjNS0_7PackingE
_ZN7Imf_3_08TimeCode7setBgf0Eb
_ZN7Imf_3_08TimeCode7setBgf1Eb
_ZN7Imf_3_08TimeCode7setBgf2Eb
_ZN7Imf_3_08TimeCode8setFrameEi
_ZN7Imf_3_08TimeCode8setHoursEi
_ZN7Imf_3_08TimeCodeC1ERKS0_
_ZN7Imf_3_08TimeCodeC1Eiiiibbbbbbiiiiiiii
_ZN7Imf_3_08TimeCodeC1EjjNS0_7PackingE
_ZN7Imf_3_08TimeCodeC1Ev
_ZN7Imf_3_08TimeCodeC2ERKS0_
_ZN7Imf_3_08TimeCodeC2Eiiiibbbbbbiiiiiiii
_ZN7Imf_3_08TimeCodeC2EjjNS0_7PackingE
_ZN7Imf_3_08TimeCodeC2Ev
_ZN7Imf_3_08TimeCodeaSERKS0_
_ZN7Imf_3_08XYZtoRGBERKNS_14ChromaticitiesEf
_ZN7Imf_3_08addFocusERNS_6HeaderERKf
_ZN7Imf_3_08addOwnerERNS_6HeaderERKNSt3__112basic_stringIcNS2_11char_traitsIcEENS2_9allocatorIcEEEE
_ZN7Imf_3_08altitudeERKNS_6HeaderE
_ZN7Imf_3_08altitudeERNS_6HeaderE
_ZN7Imf_3_08apertureERKNS_6HeaderE
_ZN7Imf_3_08apertureERNS_6HeaderE
_ZN7Imf_3_08commentsERKNS_6HeaderE
_ZN7Imf_3_08commentsERNS_6HeaderE
_ZN7Imf_3_08hasFocusERKNS_6HeaderE
_ZN7Imf_3_08hasOwnerERKNS_6HeaderE
_ZN7Imf_3_08isoSpeedERKNS_6HeaderE
_ZN7Imf_3_08isoSpeedERNS_6HeaderE
_ZN7Imf_3_08latitudeERKNS_6HeaderE
_ZN7Imf_3_08latitudeERNS_6HeaderE
_ZN7Imf_3_08timeCodeERKNS_6HeaderE
_ZN7Imf_3_08timeCodeERNS_6HeaderE
_ZN7Imf_3_08xDensityERKNS_6HeaderE
_ZN7Imf_3_08xDensityERNS_6HeaderE
_ZN7Imf_3_09Attribute12newAttributeEPKc
_ZN7Imf_3_09Attribute21registerAttributeTypeEPKcPFPS0_vE
_ZN7Imf_3_09Attribute23unRegisterAttributeTypeEPKc
_ZN7Imf_3_09Attribute9knownTypeEPKc
_ZN7Imf_3_09AttributeC2Ev
_ZN7Imf_3_09AttributeD0Ev
_ZN7Imf_3_09AttributeD1Ev
_ZN7Imf_3_09AttributeD2Ev
_ZN7Imf_3_09DeepSliceC1ENS_9PixelTypeEPcyyyiidbb
_ZN7Imf_3_09DeepSliceC2ENS_9PixelTypeEPcyyyiidbb
_ZN7Imf_3_09InputFile10readPixelsEi
_ZN7Imf_3_09InputFile10readPixelsEii
_ZN7Imf_3_09InputFile11rawTileDataERiS1_S1_S1_RPKcS1_
_ZN7Imf_3_09InputFile12rawPixelDataEiRPKcRi
_ZN7Imf_3_09InputFile14setFrameBufferERKNS_11FrameBufferE
_ZN7Imf_3_09InputFileC1EPKci
_ZN7Imf_3_09InputFileC1ERNS_7IStreamEi
_ZN7Imf_3_09InputFileC2EPKci
_ZN7Imf_3_09InputFileC2ERNS_7IStreamEi
_ZN7Imf_3_09InputFileD0Ev
_ZN7Imf_3_09InputFileD1Ev
_ZN7Imf_3_09InputFileD2Ev
_ZN7Imf_3_09InputPart10readPixelsEi
_ZN7Imf_3_09InputPart10readPixelsEii
_ZN7Imf_3_09InputPart11rawTileDataERiS1_S1_S1_RPKcS1_
_ZN7Imf_3_09InputPart12rawPixelDataEiRPKcRi
_ZN7Imf_3_09InputPart14setFrameBufferERKNS_11FrameBufferE
_ZN7Imf_3_09InputPartC1ERNS_18MultiPartInputFileEi
_ZN7Imf_3_09InputPartC2ERNS_18MultiPartInputFileEi
_ZN7Imf_3_09addEnvmapERNS_6HeaderERKNS_6EnvmapE
_ZN7Imf_3_09hasEnvmapERKNS_6HeaderE
_ZN7Imf_3_09levelSizeEiiiNS_17LevelRoundingModeE
_ZN7Imf_3_09longitudeERKNS_6HeaderE
_ZN7Imf_3_09longitudeERNS_6HeaderE
_ZN7Imf_3_09multiViewERKNS_6HeaderE
_ZN7Imf_3_09multiViewERNS_6HeaderE
_ZN7Imf_3_09utcOffsetERKNS_6HeaderE
_ZN7Imf_3_09utcOffsetERNS_6HeaderE
_ZN7Imf_3_09wrapmodesERKNS_6HeaderE
_ZN7Imf_3_09wrapmodesERNS_6HeaderE
_ZNK7Imf_3_010Compressor6formatEv
_ZNK7Imf_3_010IDManifest20ChannelGroupManifest11getChannelsEv
_ZNK7Imf_3_010IDManifest20ChannelGroupManifest13ConstIterator2idEv
_ZNK7Imf_3_010IDManifest20ChannelGroupManifest13ConstIterator4textEv
_ZNK7Imf_3_010IDManifest20ChannelGroupManifest13getComponentsEv
_ZNK7Imf_3_010IDManifest20ChannelGroupManifest3endEv
_ZNK7Imf_3_010IDManifest20ChannelGroupManifest4findEy
_ZNK7Imf_3_010IDManifest20ChannelGroupManifest4sizeEv
_ZNK7Imf_3_010IDManifest20ChannelGroupManifest5beginEv
_ZNK7Imf_3_010IDManifest20ChannelGroupManifest8Iterator2idEv
_ZNK7Imf_3_010IDManifest20ChannelGroupManifesteqERKS1_
_ZNK7Imf_3_010IDManifest4findERKNSt3__112basic_stringIcNS1_11char_traitsIcEENS1_9allocatorIcEEEE
_ZNK7Imf_3_010IDManifest4sizeEv
_ZNK7Imf_3_010IDManifest9serializeERNSt3__16vectorIcNS1_9allocatorIcEEEE
_ZNK7Imf_3_010IDManifesteqERKS0_
_ZNK7Imf_3_010IDManifestixEy
_ZNK7Imf_3_010IDManifestneERKS0_
_ZNK7Imf_3_010OutputFile11frameBufferEv
_ZNK7Imf_3_010OutputFile15currentScanLineEv
_ZNK7Imf_3_010OutputFile6headerEv
_ZNK7Imf_3_010OutputFile8fileNameEv
_ZNK7Imf_3_010OutputPart11frameBufferEv
_ZNK7Imf_3_010OutputPart15currentScanLineEv
_ZNK7Imf_3_010OutputPart6headerEv
_ZNK7Imf_3_010OutputPart8fileNameEv
_ZNK7Imf_3_011ChannelList11findChannelEPKc
_ZNK7Imf_3_011ChannelList11findChannelERKNSt3__112basic_stringIcNS1_11char_traitsIcEENS1_9allocatorIcEEEE
_ZNK7Imf_3_011ChannelList13ConstIterator4nameEv
_ZNK7Imf_3_011ChannelList13ConstIterator7channelEv
_ZNK7Imf_3_011ChannelList15channelsInLayerERKNSt3__112basic_stringIcNS1_11char_traitsIcEENS1_9allocatorIcEEEERNS0_13ConstIteratorESB_
_ZNK7Imf_3_011ChannelList18channelsWithPrefixEPKcRNS0_13ConstIteratorES4_
_ZNK7Imf_3_011ChannelList18channelsWithPrefixERKNSt3__112basic_stringIcNS1_11char_traitsIcEENS1_9allocatorIcEEEERNS0_13ConstIteratorESB_
_ZNK7Imf_3_011ChannelList3endEv
_ZNK7Imf_3_011ChannelList4findEPKc
_ZNK7Imf_3_011ChannelList4findERKNSt3__112basic_stringIcNS1_11char_traitsIcEENS1_9allocatorIcEEEE
_ZNK7Imf_3_011ChannelList5beginEv
_ZNK7Imf_3_011ChannelList6layersERNSt3__13setINS1_12basic_stringIcNS1_11char_traitsIcEENS1_9allocatorIcEEEENS1_4lessIS8_EENS6_IS8_EEEE
_ZNK7Imf_3_011ChannelList8Iterator4nameEv
_ZNK7Imf_3_011ChannelList8Iterator7channelEv
_ZNK7Imf_3_011ChannelListeqERKS0_
_ZNK7Imf_3_011ChannelListixEPKc
_ZNK7Imf_3_011ChannelListixERKNSt3__112basic_stringIcNS1_11char_traitsIcEENS1_9allocatorIcEEEE
_ZNK7Imf_3_011FrameBuffer13ConstIterator4nameEv
_ZNK7Imf_3_011FrameBuffer13ConstIterator5sliceEv
_ZNK7Imf_3_011FrameBuffer3endEv
_ZNK7Imf_3_011FrameBuffer4findEPKc
_ZNK7Imf_3_011FrameBuffer4findERKNSt3__112basic_stringIcNS1_11char_traitsIcEENS1_9allocatorIcEEEE
_ZNK7Imf_3_011FrameBuffer5beginEv
_ZNK7Imf_3_011FrameBuffer8Iterator4nameEv
_ZNK7Imf_3_011FrameBuffer8Iterator5sliceEv
_ZNK7Imf_3_011FrameBuffer9findSliceEPKc
_ZNK7Imf_3_011FrameBuffer9findSliceERKNSt3__112basic_stringIcNS1_11char_traitsIcEENS1_9allocatorIcEEEE
_ZNK7Imf_3_011FrameBufferixEPKc
_ZNK7Imf_3_011FrameBufferixERKNSt3__112basic_stringIcNS1_11char_traitsIcEENS1_9allocatorIcEEEE
_ZNK7Imf_3_011StdISStream3strEv
_ZNK7Imf_3_011StdOSStream3strEv
_ZNK7Imf_3_011TileOffsets10getOffsetsEv
_ZNK7Imf_3_011TileOffsets11isValidTileEiiii
_ZNK7Imf_3_011TileOffsets12getTileOrderEPiS1_S1_S1_
_ZNK7Imf_3_011TileOffsets7isEmptyEv
_ZNK7Imf_3_011TileOffsets7writeToERNS_7OStreamE
_ZNK7Imf_3_011TileOffsetsclEiii
_ZNK7Imf_3_011TileOffsetsclEiiii
_ZNK7Imf_3_013AcesInputFile10dataWindowEv
_ZNK7Imf_3_013AcesInputFile10isCompleteEv
_ZNK7Imf_3_013AcesInputFile11compressionEv
_ZNK7Imf_3_013AcesInputFile13displayWindowEv
_ZNK7Imf_3_013AcesInputFile16pixelAspectRatioEv
_ZNK7Imf_3_013AcesInputFile17screenWindowWidthEv
_ZNK7Imf_3_013AcesInputFile18screenWindowCenterEv
_ZNK7Imf_3_013AcesInputFile6headerEv
_ZNK7Imf_3_013AcesInputFile7versionEv
_ZNK7Imf_3_013AcesInputFile8channelsEv
_ZNK7Imf_3_013AcesInputFile8fileNameEv
_ZNK7Imf_3_013AcesInputFile9lineOrderEv
_ZNK7Imf_3_013RgbaInputFile10dataWindowEv
_ZNK7Imf_3_013RgbaInputFile10isCompleteEv
_ZNK7Imf_3_013RgbaInputFile11compressionEv
_ZNK7Imf_3_013RgbaInputFile11frameBufferEv
_ZNK7Imf_3_013RgbaInputFile13displayWindowEv
_ZNK7Imf_3_013RgbaInputFile16pixelAspectRatioEv
_ZNK7Imf_3_013RgbaInputFile17screenWindowWidthEv
_ZNK7Imf_3_013RgbaInputFile18screenWindowCenterEv
_ZNK7Imf_3_013RgbaInputFile6headerEv
_ZNK7Imf_3_013RgbaInputFile7versionEv
_ZNK7Imf_3_013RgbaInputFile8channelsEv
_ZNK7Imf_3_013RgbaInputFile8fileNameEv
_ZNK7Imf_3_013RgbaInputFile9lineOrderEv
_ZNK7Imf_3_014AcesOutputFile10dataWindowEv
_ZNK7Imf_3_014AcesOutputFile11compressionEv
_ZNK7Imf_3_014AcesOutputFile13displayWindowEv
_ZNK7Imf_3_014AcesOutputFile15currentScanLineEv
_ZNK7Imf_3_014AcesOutputFile16pixelAspectRatioEv
_ZNK7Imf_3_014AcesOutputFile17screenWindowWidthEv
_ZNK7Imf_3_014AcesOutputFile18screenWindowCenterEv
_ZNK7Imf_3_014AcesOutputFile6headerEv
_ZNK7Imf_3_014AcesOutputFile8channelsEv
_ZNK7Imf_3_014AcesOutputFile9lineOrderEv
_ZNK7Imf_3_014ChromaticitieseqERKS0_
_ZNK7Imf_3_014ChromaticitiesneERKS0_
_ZNK7Imf_3_014RgbaOutputFile10dataWindowEv
_ZNK7Imf_3_014RgbaOutputFile11compressionEv
_ZNK7Imf_3_014RgbaOutputFile11frameBufferEv
_ZNK7Imf_3_014RgbaOutputFile13displayWindowEv
_ZNK7Imf_3_014RgbaOutputFile15currentScanLineEv
_ZNK7Imf_3_014RgbaOutputFile16pixelAspectRatioEv
_ZNK7Imf_3_014RgbaOutputFile17screenWindowWidthEv
_ZNK7Imf_3_014RgbaOutputFile18screenWindowCenterEv
_ZNK7Imf_3_014RgbaOutputFile6headerEv
_ZNK7Imf_3_014RgbaOutputFile8channelsEv
_ZNK7Imf_3_014RgbaOutputFile9lineOrderEv
_ZNK7Imf_3_014TiledInputFile10isCompleteEv
_ZNK7Imf_3_014TiledInputFile10levelWidthEi
_ZNK7Imf_3_014TiledInputFile10numXLevelsEv
_ZNK7Imf_3_014TiledInputFile10numYLevelsEv
_ZNK7Imf_3_014TiledInputFile11frameBufferEv
_ZNK7Imf_3_014TiledInputFile11levelHeightEi
_ZNK7Imf_3_014TiledInputFile12isValidLevelEii
_ZNK7Imf_3_014TiledInputFile17dataWindowForTileEiii
_ZNK7Imf_3_014TiledInputFile17dataWindowForTileEiiii
_ZNK7Imf_3_014TiledInputFile17levelRoundingModeEv
_ZNK7Imf_3_014TiledInputFile18dataWindowForLevelEi
_ZNK7Imf_3_014TiledInputFile18dataWindowForLevelEii
_ZNK7Imf_3_014TiledInputFile6headerEv
_ZNK7Imf_3_014TiledInputFile7versionEv
_ZNK7Imf_3_014TiledInputFile8fileNameEv
_ZNK7Imf_3_014TiledInputFile9levelModeEv
_ZNK7Imf_3_014TiledInputFile9numLevelsEv
_ZNK7Imf_3_014TiledInputFile9numXTilesEi
_ZNK7Imf_3_014TiledInputFile9numYTilesEi
_ZNK7Imf_3_014TiledInputFile9tileXSizeEv
_ZNK7Imf_3_014TiledInputFile9tileYSizeEv
_ZNK7Imf_3_014TiledInputPart10isCompleteEv
_ZNK7Imf_3_014TiledInputPart10levelWidthEi
_ZNK7Imf_3_014TiledInputPart10numXLevelsEv
_ZNK7Imf_3_014TiledInputPart10numYLevelsEv
_ZNK7Imf_3_014TiledInputPart11frameBufferEv
_ZNK7Imf_3_014TiledInputPart11levelHeightEi
_ZNK7Imf_3_014TiledInputPart12isValidLevelEii
_ZNK7Imf_3_014TiledInputPart17dataWindowForTileEiii
_ZNK7Imf_3_014TiledInputPart17dataWindowForTileEiiii
_ZNK7Imf_3_014TiledInputPart17levelRoundingModeEv
_ZNK7Imf_3_014TiledInputPart18dataWindowForLevelEi
_ZNK7Imf_3_014TiledInputPart18dataWindowForLevelEii
_ZNK7Imf_3_014TiledInputPart6headerEv
_ZNK7Imf_3_014TiledInputPart7versionEv
_ZNK7Imf_3_014TiledInputPart8fileNameEv
_ZNK7Imf_3_014TiledInputPart9levelModeEv
_ZNK7Imf_3_014TiledInputPart9numLevelsEv
_ZNK7Imf_3_014TiledInputPart9numXTilesEi
_ZNK7Imf_3_014TiledInputPart9numYTilesEi
_ZNK7Imf_3_014TiledInputPart9tileXSizeEv
_ZNK7Imf_3_014TiledInputPart9tileYSizeEv
_ZNK7Imf_3_014TypedAttributeIN9Imath_3_03BoxINS1_4Vec2IfEEEEE4copyEv
_ZNK7Imf_3_014TypedAttributeIN9Imath_3_03BoxINS1_4Vec2IfEEEEE5valueEv
_ZNK7Imf_3_014TypedAttributeIN9Imath_3_03BoxINS1_4Vec2IfEEEEE8typeNameEv
_ZNK7Imf_3_014TypedAttributeIN9Imath_3_03BoxINS1_4Vec2IiEEEEE4copyEv
_ZNK7Imf_3_014TypedAttributeIN9Imath_3_03BoxINS1_4Vec2IiEEEEE5valueEv
_ZNK7Imf_3_014TypedAttributeIN9Imath_3_03BoxINS1_4Vec2IiEEEEE8typeNameEv
_ZNK7Imf_3_014TypedAttributeIN9Imath_3_04Vec2IdEEE4copyEv
_ZNK7Imf_3_014TypedAttributeIN9Imath_3_04Vec2IdEEE5valueEv
_ZNK7Imf_3_014TypedAttributeIN9Imath_3_04Vec2IdEEE8typeNameEv
_ZNK7Imf_3_014TypedAttributeIN9Imath_3_04Vec2IfEEE4copyEv
_ZNK7Imf_3_014TypedAttributeIN9Imath_3_04Vec2IfEEE5valueEv
_ZNK7Imf_3_014TypedAttributeIN9Imath_3_04Vec2IfEEE8typeNameEv
_ZNK7Imf_3_014TypedAttributeIN9Imath_3_04Vec2IiEEE4copyEv
_ZNK7Imf_3_014TypedAttributeIN9Imath_3_04Vec2IiEEE5valueEv
_ZNK7Imf_3_014TypedAttributeIN9Imath_3_04Vec2IiEEE8typeNameEv
_ZNK7Imf_3_014TypedAttributeIN9Imath_3_04Vec3IdEEE4copyEv
_ZNK7Imf_3_014TypedAttributeIN9Imath_3_04Vec3IdEEE5valueEv
_ZNK7Imf_3_014TypedAttributeIN9Imath_3_04Vec3IdEEE8typeNameEv
_ZNK7Imf_3_014TypedAttributeIN9Imath_3_04Vec3IfEEE4copyEv
_ZNK7Imf_3_014TypedAttributeIN9Imath_3_04Vec3IfEEE5valueEv
_ZNK7Imf_3_014TypedAttributeIN9Imath_3_04Vec3IfEEE8typeNameEv
_ZNK7Imf_3_014TypedAttributeIN9Imath_3_04Vec3IiEEE4copyEv
_ZNK7Imf_3_014TypedAttributeIN9Imath_3_04Vec3IiEEE5valueEv
_ZNK7Imf_3_014TypedAttributeIN9Imath_3_04Vec3IiEEE8typeNameEv
_ZNK7Imf_3_014TypedAttributeIN9Imath_3_08Matrix33IdEEE4copyEv
_ZNK7Imf_3_014TypedAttributeIN9Imath_3_08Matrix33IdEEE5valueEv
_ZNK7Imf_3_014TypedAttributeIN9Imath_3_08Matrix33IdEEE8typeNameEv
_ZNK7Imf_3_014TypedAttributeIN9Imath_3_08Matrix33IfEEE4copyEv
_ZNK7Imf_3_014TypedAttributeIN9Imath_3_08Matrix33IfEEE5valueEv
_ZNK7Imf_3_014TypedAttributeIN9Imath_3_08Matrix33IfEEE8typeNameEv
_ZNK7Imf_3_014TypedAttributeIN9Imath_3_08Matrix44IdEEE4copyEv
_ZNK7Imf_3_014TypedAttributeIN9Imath_3_08Matrix44IdEEE5valueEv
_ZNK7Imf_3_014TypedAttributeIN9Imath_3_08Matrix44IdEEE8typeNameEv
_ZNK7Imf_3_014TypedAttributeIN9Imath_3_08Matrix44IfEEE4copyEv
_ZNK7Imf_3_014TypedAttributeIN9Imath_3_08Matrix44IfEEE5valueEv
_ZNK7Imf_3_014TypedAttributeIN9Imath_3_08Matrix44IfEEE8typeNameEv
_ZNK7Imf_3_014TypedAttributeINS_11ChannelListEE4copyEv
_ZNK7Imf_3_014TypedAttributeINS_11ChannelListEE5valueEv
_ZNK7Imf_3_014TypedAttributeINS_11ChannelListEE8typeNameEv
_ZNK7Imf_3_014TypedAttributeINS_11CompressionEE4copyEv
_ZNK7Imf_3_014TypedAttributeINS_11CompressionEE5valueEv
_ZNK7Imf_3_014TypedAttributeINS_11CompressionEE8typeNameEv
_ZNK7Imf_3_014TypedAttributeINS_12PreviewImageEE4copyEv
_ZNK7Imf_3_014TypedAttributeINS_12PreviewImageEE5valueEv
_ZNK7Imf_3_014TypedAttributeINS_12PreviewImageEE8typeNameEv
_ZNK7Imf_3_014TypedAttributeINS_14ChromaticitiesEE4copyEv
_ZNK7Imf_3_014TypedAttributeINS_14ChromaticitiesEE5valueEv
_ZNK7Imf_3_014TypedAttributeINS_14ChromaticitiesEE8typeNameEv
_ZNK7Imf_3_014TypedAttributeINS_14DeepImageStateEE4copyEv
_ZNK7Imf_3_014TypedAttributeINS_14DeepImageStateEE5valueEv
_ZNK7Imf_3_014TypedAttributeINS_14DeepImageStateEE8typeNameEv
_ZNK7Imf_3_014TypedAttributeINS_15TileDescriptionEE4copyEv
_ZNK7Imf_3_014TypedAttributeINS_15TileDescriptionEE5valueEv
_ZNK7Imf_3_014TypedAttributeINS_15TileDescriptionEE8typeNameEv
_ZNK7Imf_3_014TypedAttributeINS_20CompressedIDManifestEE4copyEv
_ZNK7Imf_3_014TypedAttributeINS_20CompressedIDManifestEE5valueEv
_ZNK7Imf_3_014TypedAttributeINS_20CompressedIDManifestEE8typeNameEv
_ZNK7Imf_3_014TypedAttributeINS_6EnvmapEE4copyEv
_ZNK7Imf_3_014TypedAttributeINS_6EnvmapEE5valueEv
_ZNK7Imf_3_014TypedAttributeINS_6EnvmapEE8typeNameEv
_ZNK7Imf_3_014TypedAttributeINS_7KeyCodeEE4copyEv
_ZNK7Imf_3_014TypedAttributeINS_7KeyCodeEE5valueEv
_ZNK7Imf_3_014TypedAttributeINS_7KeyCodeEE8typeNameEv
_ZNK7Imf_3_014TypedAttributeINS_8RationalEE4copyEv
_ZNK7Imf_3_014TypedAttributeINS_8RationalEE5valueEv
_ZNK7Imf_3_014TypedAttributeINS_8RationalEE8typeNameEv
_ZNK7Imf_3_014TypedAttributeINS_8TimeCodeEE4copyEv
_ZNK7Imf_3_014TypedAttributeINS_8TimeCodeEE5valueEv
_ZNK7Imf_3_014TypedAttributeINS_8TimeCodeEE8typeNameEv
_ZNK7Imf_3_014TypedAttributeINS_9LineOrderEE4copyEv
_ZNK7Imf_3_014TypedAttributeINS_9LineOrderEE5valueEv
_ZNK7Imf_3_014TypedAttributeINS_9LineOrderEE8typeNameEv
_ZNK7Imf_3_014TypedAttributeINSt3__112basic_stringIcNS1_11char_traitsIcEENS1_9allocatorIcEEEEE4copyEv
_ZNK7Imf_3_014TypedAttributeINSt3__112basic_stringIcNS1_11char_traitsIcEENS1_9allocatorIcEEEEE5valueEv
_ZNK7Imf_3_014TypedAttributeINSt3__112basic_stringIcNS1_11char_traitsIcEENS1_9allocatorIcEEEEE8typeNameEv
_ZNK7Imf_3_014TypedAttributeINSt3__16vectorINS1_12basic_stringIcNS1_11char_traitsIcEENS1_9allocatorIcEEEENS6_IS8_EEEEE4copyEv
_ZNK7Imf_3_014TypedAttributeINSt3__16vectorINS1_12basic_stringIcNS1_11char_traitsIcEENS1_9allocatorIcEEEENS6_IS8_EEEEE5valueEv
_ZNK7Imf_3_014TypedAttributeINSt3__16vectorINS1_12basic_stringIcNS1_11char_traitsIcEENS1_9allocatorIcEEEENS6_IS8_EEEEE8typeNameEv
_ZNK7Imf_3_014TypedAttributeINSt3__16vectorIfNS1_9allocatorIfEEEEE4copyEv
_ZNK7Imf_3_014TypedAttributeINSt3__16vectorIfNS1_9allocatorIfEEEEE5valueEv
_ZNK7Imf_3_014TypedAttributeINSt3__16vectorIfNS1_9allocatorIfEEEEE8typeNameEv
_ZNK7Imf_3_014TypedAttributeIdE12writeValueToERNS_7OStreamEi
_ZNK7Imf_3_014TypedAttributeIdE4copyEv
_ZNK7Imf_3_014TypedAttributeIdE5valueEv
_ZNK7Imf_3_014TypedAttributeIdE8typeNameEv
_ZNK7Imf_3_014TypedAttributeIfE12writeValueToERNS_7OStreamEi
_ZNK7Imf_3_014TypedAttributeIfE4copyEv
_ZNK7Imf_3_014TypedAttributeIfE5valueEv
_ZNK7Imf_3_014TypedAttributeIfE8typeNameEv
_ZNK7Imf_3_014TypedAttributeIiE12writeValueToERNS_7OStreamEi
_ZNK7Imf_3_014TypedAttributeIiE4copyEv
_ZNK7Imf_3_014TypedAttributeIiE5valueEv
_ZNK7Imf_3_014TypedAttributeIiE8typeNameEv
_ZNK7Imf_3_015DeepFrameBuffer13ConstIterator4nameEv
_ZNK7Imf_3_015DeepFrameBuffer13ConstIterator5sliceEv
_ZNK7Imf_3_015DeepFrameBuffer19getSampleCountSliceEv
_ZNK7Imf_3_015DeepFrameBuffer3endEv
_ZNK7Imf_3_015DeepFrameBuffer4findEPKc
_ZNK7Imf_3_015DeepFrameBuffer4findERKNSt3__112basic_stringIcNS1_11char_traitsIcEENS1_9allocatorIcEEEE
_ZNK7Imf_3_015DeepFrameBuffer5beginEv
_ZNK7Imf_3_015DeepFrameBuffer8Iterator4nameEv
_ZNK7Imf_3_015DeepFrameBuffer8Iterator5sliceEv
_ZNK7Imf_3_015DeepFrameBuffer9findSliceEPKc
_ZNK7Imf_3_015DeepFrameBuffer9findSliceERKNSt3__112basic_stringIcNS1_11char_traitsIcEENS1_9allocatorIcEEEE
_ZNK7Imf_3_015DeepFrameBufferixEPKc
_ZNK7Imf_3_015DeepFrameBufferixERKNSt3__112basic_stringIcNS1_11char_traitsIcEENS1_9allocatorIcEEEE
_ZNK7Imf_3_015OpaqueAttribute12writeValueToERNS_7OStreamEi
_ZNK7Imf_3_015OpaqueAttribute4copyEv
_ZNK7Imf_3_015OpaqueAttribute8typeNameEv
_ZNK7Imf_3_015TiledOutputFile10levelWidthEi
_ZNK7Imf_3_015TiledOutputFile10numXLevelsEv
_ZNK7Imf_3_015TiledOutputFile10numYLevelsEv
_ZNK7Imf_3_015TiledOutputFile11frameBufferEv
_ZNK7Imf_3_015TiledOutputFile11levelHeightEi
_ZNK7Imf_3_015TiledOutputFile12isValidLevelEii
_ZNK7Imf_3_015TiledOutputFile17dataWindowForTileEiii
_ZNK7Imf_3_015TiledOutputFile17dataWindowForTileEiiii
_ZNK7Imf_3_015TiledOutputFile17levelRoundingModeEv
_ZNK7Imf_3_015TiledOutputFile18dataWindowForLevelEi
_ZNK7Imf_3_015TiledOutputFile18dataWindowForLevelEii
_ZNK7Imf_3_015TiledOutputFile6headerEv
_ZNK7Imf_3_015TiledOutputFile8fileNameEv
_ZNK7Imf_3_015TiledOutputFile9levelModeEv
_ZNK7Imf_3_015TiledOutputFile9numLevelsEv
_ZNK7Imf_3_015TiledOutputFile9numXTilesEi
_ZNK7Imf_3_015TiledOutputFile9numYTilesEi
_ZNK7Imf_3_015TiledOutputFile9tileXSizeEv
_ZNK7Imf_3_015TiledOutputFile9tileYSizeEv
_ZNK7Imf_3_015TiledOutputPart10levelWidthEi
_ZNK7Imf_3_015TiledOutputPart10numXLevelsEv
_ZNK7Imf_3_015TiledOutputPart10numYLevelsEv
_ZNK7Imf_3_015TiledOutputPart11frameBufferEv
_ZNK7Imf_3_015TiledOutputPart11levelHeightEi
_ZNK7Imf_3_015TiledOutputPart12isValidLevelEii
_ZNK7Imf_3_015TiledOutputPart17dataWindowForTileEiii
_ZNK7Imf_3_015TiledOutputPart17dataWindowForTileEiiii
_ZNK7Imf_3_015TiledOutputPart17levelRoundingModeEv
_ZNK7Imf_3_015TiledOutputPart18dataWindowForLevelEi
_ZNK7Imf_3_015TiledOutputPart18dataWindowForLevelEii
_ZNK7Imf_3_015TiledOutputPart6headerEv
_ZNK7Imf_3_015TiledOutputPart8fileNameEv
_ZNK7Imf_3_015TiledOutputPart9levelModeEv
_ZNK7Imf_3_015TiledOutputPart9numLevelsEv
_ZNK7Imf_3_015TiledOutputPart9numXTilesEi
_ZNK7Imf_3_015TiledOutputPart9numYTilesEi
_ZNK7Imf_3_015TiledOutputPart9tileXSizeEv
_ZNK7Imf_3_015TiledOutputPart9tileYSizeEv
_ZNK7Imf_3_017ScanLineInputFile10isCompleteEv
_ZNK7Imf_3_017ScanLineInputFile11frameBufferEv
_ZNK7Imf_3_017ScanLineInputFile20rawPixelDataToBufferEiPcRi
_ZNK7Imf_3_017ScanLineInputFile21isOptimizationEnabledEv
_ZNK7Imf_3_017ScanLineInputFile6headerEv
_ZNK7Imf_3_017ScanLineInputFile7versionEv
_ZNK7Imf_3_017ScanLineInputFile8fileNameEv
_ZNK7Imf_3_018DeepTiledInputFile10isCompleteEv
_ZNK7Imf_3_018DeepTiledInputFile10levelWidthEi
_ZNK7Imf_3_018DeepTiledInputFile10numXLevelsEv
_ZNK7Imf_3_018DeepTiledInputFile10numYLevelsEv
_ZNK7Imf_3_018DeepTiledInputFile10totalTilesEv
_ZNK7Imf_3_018DeepTiledInputFile11frameBufferEv
_ZNK7Imf_3_018DeepTiledInputFile11levelHeightEi
_ZNK7Imf_3_018DeepTiledInputFile11rawTileDataERiS1_S1_S1_PcRy
_ZNK7Imf_3_018DeepTiledInputFile12isValidLevelEii
_ZNK7Imf_3_018DeepTiledInputFile17dataWindowForTileEiii
_ZNK7Imf_3_018DeepTiledInputFile17dataWindowForTileEiiii
_ZNK7Imf_3_018DeepTiledInputFile17levelRoundingModeEv
_ZNK7Imf_3_018DeepTiledInputFile18dataWindowForLevelEi
_ZNK7Imf_3_018DeepTiledInputFile18dataWindowForLevelEii
_ZNK7Imf_3_018DeepTiledInputFile6headerEv
_ZNK7Imf_3_018DeepTiledInputFile7versionEv
_ZNK7Imf_3_018DeepTiledInputFile8fileNameEv
_ZNK7Imf_3_018DeepTiledInputFile9levelModeEv
_ZNK7Imf_3_018DeepTiledInputFile9numLevelsEv
_ZNK7Imf_3_018DeepTiledInputFile9numXTilesEi
_ZNK7Imf_3_018DeepTiledInputFile9numYTilesEi
_ZNK7Imf_3_018DeepTiledInputFile9tileXSizeEv
_ZNK7Imf_3_018DeepTiledInputFile9tileYSizeEv
_ZNK7Imf_3_018DeepTiledInputPart10isCompleteEv
_ZNK7Imf_3_018DeepTiledInputPart10levelWidthEi
_ZNK7Imf_3_018DeepTiledInputPart10numXLevelsEv
_ZNK7Imf_3_018DeepTiledInputPart10numYLevelsEv
_ZNK7Imf_3_018DeepTiledInputPart11frameBufferEv
_ZNK7Imf_3_018DeepTiledInputPart11levelHeightEi
_ZNK7Imf_3_018DeepTiledInputPart11rawTileDataERiS1_S1_S1_PcRy
_ZNK7Imf_3_018DeepTiledInputPart12isValidLevelEii
_ZNK7Imf_3_018DeepTiledInputPart17dataWindowForTileEiii
_ZNK7Imf_3_018DeepTiledInputPart17dataWindowForTileEiiii
_ZNK7Imf_3_018DeepTiledInputPart17levelRoundingModeEv
_ZNK7Imf_3_018DeepTiledInputPart18dataWindowForLevelEi
_ZNK7Imf_3_018DeepTiledInputPart18dataWindowForLevelEii
_ZNK7Imf_3_018DeepTiledInputPart6headerEv
_ZNK7Imf_3_018DeepTiledInputPart7versionEv
_ZNK7Imf_3_018DeepTiledInputPart8fileNameEv
_ZNK7Imf_3_018DeepTiledInputPart9levelModeEv
_ZNK7Imf_3_018DeepTiledInputPart9numLevelsEv
_ZNK7Imf_3_018DeepTiledInputPart9numXTilesEi
_ZNK7Imf_3_018DeepTiledInputPart9numYTilesEi
_ZNK7Imf_3_018DeepTiledInputPart9tileXSizeEv
_ZNK7Imf_3_018DeepTiledInputPart9tileYSizeEv
_ZNK7Imf_3_018MultiPartInputFile12partCompleteEi
_ZNK7Imf_3_018MultiPartInputFile5partsEv
_ZNK7Imf_3_018MultiPartInputFile6headerEi
_ZNK7Imf_3_018MultiPartInputFile7versionEv
_ZNK7Imf_3_018TiledRgbaInputFile10dataWindowEv
_ZNK7Imf_3_018TiledRgbaInputFile10isCompleteEv
_ZNK7Imf_3_018TiledRgbaInputFile10levelWidthEi
_ZNK7Imf_3_018TiledRgbaInputFile10numXLevelsEv
_ZNK7Imf_3_018TiledRgbaInputFile10numYLevelsEv
_ZNK7Imf_3_018TiledRgbaInputFile11compressionEv
_ZNK7Imf_3_018TiledRgbaInputFile11frameBufferEv
_ZNK7Imf_3_018TiledRgbaInputFile11levelHeightEi
_ZNK7Imf_3_018TiledRgbaInputFile12isValidLevelEii
_ZNK7Imf_3_018TiledRgbaInputFile13displayWindowEv
_ZNK7Imf_3_018TiledRgbaInputFile16pixelAspectRatioEv
_ZNK7Imf_3_018TiledRgbaInputFile17dataWindowForTileEiii
_ZNK7Imf_3_018TiledRgbaInputFile17dataWindowForTileEiiii
_ZNK7Imf_3_018TiledRgbaInputFile17levelRoundingModeEv
_ZNK7Imf_3_018TiledRgbaInputFile17screenWindowWidthEv
_ZNK7Imf_3_018TiledRgbaInputFile18dataWindowForLevelEi
_ZNK7Imf_3_018TiledRgbaInputFile18dataWindowForLevelEii
_ZNK7Imf_3_018TiledRgbaInputFile18screenWindowCenterEv
_ZNK7Imf_3_018TiledRgbaInputFile6headerEv
_ZNK7Imf_3_018TiledRgbaInputFile7versionEv
_ZNK7Imf_3_018TiledRgbaInputFile8channelsEv
_ZNK7Imf_3_018TiledRgbaInputFile8fileNameEv
_ZNK7Imf_3_018TiledRgbaInputFile9levelModeEv
_ZNK7Imf_3_018TiledRgbaInputFile9lineOrderEv
_ZNK7Imf_3_018TiledRgbaInputFile9numLevelsEv
_ZNK7Imf_3_018TiledRgbaInputFile9numXTilesEi
_ZNK7Imf_3_018TiledRgbaInputFile9numYTilesEi
_ZNK7Imf_3_018TiledRgbaInputFile9tileXSizeEv
_ZNK7Imf_3_018TiledRgbaInputFile9tileYSizeEv
_ZNK7Imf_3_019DeepTiledOutputFile10levelWidthEi
_ZNK7Imf_3_019DeepTiledOutputFile10numXLevelsEv
_ZNK7Imf_3_019DeepTiledOutputFile10numYLevelsEv
_ZNK7Imf_3_019DeepTiledOutputFile11frameBufferEv
_ZNK7Imf_3_019DeepTiledOutputFile11levelHeightEi
_ZNK7Imf_3_019DeepTiledOutputFile12isValidLevelEii
_ZNK7Imf_3_019DeepTiledOutputFile17dataWindowForTileEiii
_ZNK7Imf_3_019DeepTiledOutputFile17dataWindowForTileEiiii
_ZNK7Imf_3_019DeepTiledOutputFile17levelRoundingModeEv
_ZNK7Imf_3_019DeepTiledOutputFile18dataWindowForLevelEi
_ZNK7Imf_3_019DeepTiledOutputFile18dataWindowForLevelEii
_ZNK7Imf_3_019DeepTiledOutputFile6headerEv
_ZNK7Imf_3_019DeepTiledOutputFile8fileNameEv
_ZNK7Imf_3_019DeepTiledOutputFile9levelModeEv
_ZNK7Imf_3_019DeepTiledOutputFile9numLevelsEv
_ZNK7Imf_3_019DeepTiledOutputFile9numXTilesEi
_ZNK7Imf_3_019DeepTiledOutputFile9numYTilesEi
_ZNK7Imf_3_019DeepTiledOutputFile9tileXSizeEv
_ZNK7Imf_3_019DeepTiledOutputFile9tileYSizeEv
_ZNK7Imf_3_019DeepTiledOutputPart10levelWidthEi
_ZNK7Imf_3_019DeepTiledOutputPart10numXLevelsEv
_ZNK7Imf_3_019DeepTiledOutputPart10numYLevelsEv
_ZNK7Imf_3_019DeepTiledOutputPart11frameBufferEv
_ZNK7Imf_3_019DeepTiledOutputPart11levelHeightEi
_ZNK7Imf_3_019DeepTiledOutputPart12isValidLevelEii
_ZNK7Imf_3_019DeepTiledOutputPart17dataWindowForTileEiii
_ZNK7Imf_3_019DeepTiledOutputPart17dataWindowForTileEiiii
_ZNK7Imf_3_019DeepTiledOutputPart17levelRoundingModeEv
_ZNK7Imf_3_019DeepTiledOutputPart18dataWindowForLevelEi
_ZNK7Imf_3_019DeepTiledOutputPart18dataWindowForLevelEii
_ZNK7Imf_3_019DeepTiledOutputPart6headerEv
_ZNK7Imf_3_019DeepTiledOutputPart8fileNameEv
_ZNK7Imf_3_019DeepTiledOutputPart9levelModeEv
_ZNK7Imf_3_019DeepTiledOutputPart9numLevelsEv
_ZNK7Imf_3_019DeepTiledOutputPart9numXTilesEi
_ZNK7Imf_3_019DeepTiledOutputPart9numYTilesEi
_ZNK7Imf_3_019DeepTiledOutputPart9tileXSizeEv
_ZNK7Imf_3_019DeepTiledOutputPart9tileYSizeEv
_ZNK7Imf_3_019MultiPartOutputFile5partsEv
_ZNK7Imf_3_019MultiPartOutputFile6headerEi
_ZNK7Imf_3_019TiledRgbaOutputFile10dataWindowEv
_ZNK7Imf_3_019TiledRgbaOutputFile10levelWidthEi
_ZNK7Imf_3_019TiledRgbaOutputFile10numXLevelsEv
_ZNK7Imf_3_019TiledRgbaOutputFile10numYLevelsEv
_ZNK7Imf_3_019TiledRgbaOutputFile11compressionEv
_ZNK7Imf_3_019TiledRgbaOutputFile11frameBufferEv
_ZNK7Imf_3_019TiledRgbaOutputFile11levelHeightEi
_ZNK7Imf_3_019TiledRgbaOutputFile12isValidLevelEii
_ZNK7Imf_3_019TiledRgbaOutputFile13displayWindowEv
_ZNK7Imf_3_019TiledRgbaOutputFile16pixelAspectRatioEv
_ZNK7Imf_3_019TiledRgbaOutputFile17dataWindowForTileEiii
_ZNK7Imf_3_019TiledRgbaOutputFile17dataWindowForTileEiiii
_ZNK7Imf_3_019TiledRgbaOutputFile17levelRoundingModeEv
_ZNK7Imf_3_019TiledRgbaOutputFile17screenWindowWidthEv
_ZNK7Imf_3_019TiledRgbaOutputFile18dataWindowForLevelEi
_ZNK7Imf_3_019TiledRgbaOutputFile18dataWindowForLevelEii
_ZNK7Imf_3_019TiledRgbaOutputFile18screenWindowCenterEv
_ZNK7Imf_3_019TiledRgbaOutputFile6headerEv
_ZNK7Imf_3_019TiledRgbaOutputFile8channelsEv
_ZNK7Imf_3_019TiledRgbaOutputFile9levelModeEv
_ZNK7Imf_3_019TiledRgbaOutputFile9lineOrderEv
_ZNK7Imf_3_019TiledRgbaOutputFile9numLevelsEv
_ZNK7Imf_3_019TiledRgbaOutputFile9numXTilesEi
_ZNK7Imf_3_019TiledRgbaOutputFile9numYTilesEi
_ZNK7Imf_3_019TiledRgbaOutputFile9tileXSizeEv
_ZNK7Imf_3_019TiledRgbaOutputFile9tileYSizeEv
_ZNK7Imf_3_021CompositeDeepScanLine10dataWindowEv
_ZNK7Imf_3_021CompositeDeepScanLine11frameBufferEv
_ZNK7Imf_3_021CompositeDeepScanLine7sourcesEv
_ZNK7Imf_3_021DeepScanLineInputFile10isCompleteEv
_ZNK7Imf_3_021DeepScanLineInputFile10readPixelsEPKcRKNS_15DeepFrameBufferEii
_ZNK7Imf_3_021DeepScanLineInputFile11frameBufferEv
_ZNK7Imf_3_021DeepScanLineInputFile19lastScanLineInChunkEi
_ZNK7Imf_3_021DeepScanLineInputFile20firstScanLineInChunkEi
_ZNK7Imf_3_021DeepScanLineInputFile21readPixelSampleCountsEPKcRKNS_15DeepFrameBufferEii
_ZNK7Imf_3_021DeepScanLineInputFile6headerEv
_ZNK7Imf_3_021DeepScanLineInputFile7versionEv
_ZNK7Imf_3_021DeepScanLineInputFile8fileNameEv
_ZNK7Imf_3_021DeepScanLineInputPart10isCompleteEv
_ZNK7Imf_3_021DeepScanLineInputPart10readPixelsEPKcRKNS_15DeepFrameBufferEii
_ZNK7Imf_3_021DeepScanLineInputPart11frameBufferEv
_ZNK7Imf_3_021DeepScanLineInputPart19lastScanLineInChunkEi
_ZNK7Imf_3_021DeepScanLineInputPart20firstScanLineInChunkEi
_ZNK7Imf_3_021DeepScanLineInputPart21readPixelSampleCountsEPKcRKNS_15DeepFrameBufferEii
_ZNK7Imf_3_021DeepScanLineInputPart6headerEv
_ZNK7Imf_3_021DeepScanLineInputPart7versionEv
_ZNK7Imf_3_021DeepScanLineInputPart8fileNameEv
_ZNK7Imf_3_022DeepScanLineOutputFile11frameBufferEv
_ZNK7Imf_3_022DeepScanLineOutputFile15currentScanLineEv
_ZNK7Imf_3_022DeepScanLineOutputFile6headerEv
_ZNK7Imf_3_022DeepScanLineOutputFile8fileNameEv
_ZNK7Imf_3_022DeepScanLineOutputPart11frameBufferEv
_ZNK7Imf_3_022DeepScanLineOutputPart15currentScanLineEv
_ZNK7Imf_3_022DeepScanLineOutputPart6headerEv
_ZNK7Imf_3_022DeepScanLineOutputPart8fileNameEv
_ZNK7Imf_3_06Header10chunkCountEv
_ZNK7Imf_3_06Header10dataWindowEv
_ZNK7Imf_3_06Header10hasVersionEv
_ZNK7Imf_3_06Header11compressionEv
_ZNK7Imf_3_06Header11sanityCheckEbb
_ZNK7Imf_3_06Header12previewImageEv
_ZNK7Imf_3_06Header13ConstIterator4nameEv
_ZNK7Imf_3_06Header13ConstIterator9attributeEv
_ZNK7Imf_3_06Header13displayWindowEv
_ZNK7Imf_3_06Header13hasChunkCountEv
_ZNK7Imf_3_06Header15hasPreviewImageEv
_ZNK7Imf_3_06Header15tileDescriptionEv
_ZNK7Imf_3_06Header16pixelAspectRatioEv
_ZNK7Imf_3_06Header17screenWindowWidthEv
_ZNK7Imf_3_06Header18hasTileDescriptionEv
_ZNK7Imf_3_06Header18screenWindowCenterEv
_ZNK7Imf_3_06Header3endEv
_ZNK7Imf_3_06Header4findEPKc
_ZNK7Imf_3_06Header4findERKNSt3__112basic_stringIcNS1_11char_traitsIcEENS1_9allocatorIcEEEE
_ZNK7Imf_3_06Header4nameEv
_ZNK7Imf_3_06Header4typeEv
_ZNK7Imf_3_06Header4viewEv
_ZNK7Imf_3_06Header5beginEv
_ZNK7Imf_3_06Header7hasNameEv
_ZNK7Imf_3_06Header7hasTypeEv
_ZNK7Imf_3_06Header7hasViewEv
_ZNK7Imf_3_06Header7versionEv
_ZNK7Imf_3_06Header7writeToERNS_7OStreamEb
_ZNK7Imf_3_06Header8Iterator4nameEv
_ZNK7Imf_3_06Header8Iterator9attributeEv
_ZNK7Imf_3_06Header8channelsEv
_ZNK7Imf_3_06Header9lineOrderEv
_ZNK7Imf_3_06HeaderixEPKc
_ZNK7Imf_3_06HeaderixERKNSt3__112basic_stringIcNS1_11char_traitsIcEENS1_9allocatorIcEEEE
_ZNK7Imf_3_07ChanneleqERKS0_
_ZNK7Imf_3_07HalfLut5applyEPN9Imath_3_04halfEii
_ZNK7Imf_3_07HalfLut5applyERKNS_5SliceERKN9Imath_3_03BoxINS4_4Vec2IiEEEE
_ZNK7Imf_3_07IStream14isMemoryMappedEv
_ZNK7Imf_3_07IStream8fileNameEv
_ZNK7Imf_3_07KeyCode10perfOffsetEv
_ZNK7Imf_3_07KeyCode11filmMfcCodeEv
_ZNK7Imf_3_07KeyCode13perfsPerCountEv
_ZNK7Imf_3_07KeyCode13perfsPerFrameEv
_ZNK7Imf_3_07KeyCode5countEv
_ZNK7Imf_3_07KeyCode6prefixEv
_ZNK7Imf_3_07KeyCode8filmTypeEv
_ZNK7Imf_3_07OStream8fileNameEv
_ZNK7Imf_3_07RgbaLut5applyEPNS_4RgbaEii
_ZNK7Imf_3_07RgbaLut5applyEPNS_4RgbaEiiRKN9Imath_3_03BoxINS3_4Vec2IiEEEE
_ZNK7Imf_3_08TimeCode10colorFrameEv
_ZNK7Imf_3_08TimeCode10fieldPhaseEv
_ZNK7Imf_3_08TimeCode11binaryGroupEi
_ZNK7Imf_3_08TimeCode12timeAndFlagsENS0_7PackingE
_ZNK7Imf_3_08TimeCode4bgf0Ev
_ZNK7Imf_3_08TimeCode4bgf1Ev
_ZNK7Imf_3_08TimeCode4bgf2Ev
_ZNK7Imf_3_08TimeCode5frameEv
_ZNK7Imf_3_08TimeCode5hoursEv
_ZNK7Imf_3_08TimeCode7minutesEv
_ZNK7Imf_3_08TimeCode7secondsEv
_ZNK7Imf_3_08TimeCode8userDataEv
_ZNK7Imf_3_08TimeCode9dropFrameEv
_ZNK7Imf_3_08TimeCodeeqERKS0_
_ZNK7Imf_3_08TimeCodeneERKS0_
_ZNK7Imf_3_09InputFile10isCompleteEv
_ZNK7Imf_3_09InputFile11frameBufferEv
_ZNK7Imf_3_09InputFile20rawPixelDataToBufferEiPcRi
_ZNK7Imf_3_09InputFile21isOptimizationEnabledEv
_ZNK7Imf_3_09InputFile6headerEv
_ZNK7Imf_3_09InputFile7versionEv
_ZNK7Imf_3_09InputFile8fileNameEv
_ZNK7Imf_3_09InputPart10isCompleteEv
_ZNK7Imf_3_09InputPart11frameBufferEv
_ZNK7Imf_3_09InputPart20rawPixelDataToBufferEiPcRi
_ZNK7Imf_3_09InputPart21isOptimizationEnabledEv
_ZNK7Imf_3_09InputPart6headerEv
_ZNK7Imf_3_09InputPart7versionEv
_ZNK7Imf_3_09InputPart8fileNameEv
_ZTVN7Imf_3_014TypedAttributeIN9Imath_3_03BoxINS1_4Vec2IfEEEEEE DATA
_ZTVN7Imf_3_014TypedAttributeIN9Imath_3_03BoxINS1_4Vec2IiEEEEEE DATA
_ZTVN7Imf_3_014TypedAttributeIN9Imath_3_04Vec2IdEEEE DATA
_ZTVN7Imf_3_014TypedAttributeIN9Imath_3_04Vec2IfEEEE DATA
_ZTVN7Imf_3_014TypedAttributeIN9Imath_3_04Vec2IiEEEE DATA
_ZTVN7Imf_3_014TypedAttributeIN9Imath_3_04Vec3IdEEEE DATA
_ZTVN7Imf_3_014TypedAttributeIN9Imath_3_04Vec3IfEEEE DATA
_ZTVN7Imf_3_014TypedAttributeIN9Imath_3_04Vec3IiEEEE DATA
_ZTVN7Imf_3_014TypedAttributeIN9Imath_3_08Matrix33IdEEEE DATA
_ZTVN7Imf_3_014TypedAttributeIN9Imath_3_08Matrix33IfEEEE DATA
_ZTVN7Imf_3_014TypedAttributeIN9Imath_3_08Matrix44IdEEEE DATA
_ZTVN7Imf_3_014TypedAttributeIN9Imath_3_08Matrix44IfEEEE DATA
_ZTVN7Imf_3_014TypedAttributeINS_11ChannelListEEE DATA
_ZTVN7Imf_3_014TypedAttributeINS_11CompressionEEE DATA
_ZTVN7Imf_3_014TypedAttributeINS_12PreviewImageEEE DATA
_ZTVN7Imf_3_014TypedAttributeINS_14ChromaticitiesEEE DATA
_ZTVN7Imf_3_014TypedAttributeINS_14DeepImageStateEEE DATA
_ZTVN7Imf_3_014TypedAttributeINS_15TileDescriptionEEE DATA
_ZTVN7Imf_3_014TypedAttributeINS_20CompressedIDManifestEEE DATA
_ZTVN7Imf_3_014TypedAttributeINS_6EnvmapEEE DATA
_ZTVN7Imf_3_014TypedAttributeINS_7KeyCodeEEE DATA
_ZTVN7Imf_3_014TypedAttributeINS_8RationalEEE DATA
_ZTVN7Imf_3_014TypedAttributeINS_8TimeCodeEEE DATA
_ZTVN7Imf_3_014TypedAttributeINS_9LineOrderEEE DATA
_ZTVN7Imf_3_014TypedAttributeINSt3__112basic_stringIcNS1_11char_traitsIcEENS1_9allocatorIcEEEEEE DATA
_ZTVN7Imf_3_014TypedAttributeINSt3__16vectorINS1_12basic_stringIcNS1_11char_traitsIcEENS1_9allocatorIcEEEENS6_IS8_EEEEEE DATA
_ZTVN7Imf_3_014TypedAttributeINSt3__16vectorIfNS1_9allocatorIfEEEEEE DATA
_ZTVN7Imf_3_014TypedAttributeIdEE DATA
_ZTVN7Imf_3_014TypedAttributeIfEE DATA
_ZTVN7Imf_3_014TypedAttributeIiEE DATA
